
bin\Release\Solar-Tracker.elf:     file format elf32-avr

Sections:
Idx Name          Size      VMA       LMA       File off  Algn
  0 .data         0000002e  00800100  00001370  00001424  2**0
                  CONTENTS, ALLOC, LOAD, DATA
  1 .text         00001370  00000000  00000000  000000b4  2**1
                  CONTENTS, ALLOC, LOAD, READONLY, CODE
  2 .bss          00000007  0080012e  0080012e  00001452  2**0
                  ALLOC
  3 .fuse         00000003  00820000  00820000  00001452  2**0
                  CONTENTS, ALLOC, LOAD, DATA

Disassembly of section .text:

00000000 <.text>:
       0:	0c 94 34 00 	jmp	0x68	;  0x68
       4:	0c 94 51 00 	jmp	0xa2	;  0xa2
       8:	0c 94 51 00 	jmp	0xa2	;  0xa2
       c:	0c 94 51 00 	jmp	0xa2	;  0xa2
      10:	0c 94 51 00 	jmp	0xa2	;  0xa2
      14:	0c 94 51 00 	jmp	0xa2	;  0xa2
      18:	0c 94 51 00 	jmp	0xa2	;  0xa2
      1c:	0c 94 51 00 	jmp	0xa2	;  0xa2
      20:	0c 94 51 00 	jmp	0xa2	;  0xa2
      24:	0c 94 51 00 	jmp	0xa2	;  0xa2
      28:	0c 94 51 00 	jmp	0xa2	;  0xa2
      2c:	0c 94 51 00 	jmp	0xa2	;  0xa2
      30:	0c 94 51 00 	jmp	0xa2	;  0xa2
      34:	0c 94 51 00 	jmp	0xa2	;  0xa2
      38:	0c 94 51 00 	jmp	0xa2	;  0xa2
      3c:	0c 94 51 00 	jmp	0xa2	;  0xa2
      40:	0c 94 51 00 	jmp	0xa2	;  0xa2
      44:	0c 94 51 00 	jmp	0xa2	;  0xa2
      48:	0c 94 51 00 	jmp	0xa2	;  0xa2
      4c:	0c 94 51 00 	jmp	0xa2	;  0xa2
      50:	0c 94 51 00 	jmp	0xa2	;  0xa2
      54:	0c 94 51 00 	jmp	0xa2	;  0xa2
      58:	0c 94 51 00 	jmp	0xa2	;  0xa2
      5c:	0c 94 51 00 	jmp	0xa2	;  0xa2
      60:	0c 94 51 00 	jmp	0xa2	;  0xa2
      64:	0c 94 51 00 	jmp	0xa2	;  0xa2
      68:	11 24       	eor	r1, r1
      6a:	1f be       	out	0x3f, r1	; 63
      6c:	cf ef       	ldi	r28, 0xFF	; 255
      6e:	d8 e0       	ldi	r29, 0x08	; 8
      70:	de bf       	out	0x3e, r29	; 62
      72:	cd bf       	out	0x3d, r28	; 61
      74:	11 e0       	ldi	r17, 0x01	; 1
      76:	a0 e0       	ldi	r26, 0x00	; 0
      78:	b1 e0       	ldi	r27, 0x01	; 1
      7a:	e0 e7       	ldi	r30, 0x70	; 112
      7c:	f3 e1       	ldi	r31, 0x13	; 19
      7e:	02 c0       	rjmp	.+4      	;  0x84
      80:	05 90       	lpm	r0, Z+
      82:	0d 92       	st	X+, r0
      84:	ae 32       	cpi	r26, 0x2E	; 46
      86:	b1 07       	cpc	r27, r17
      88:	d9 f7       	brne	.-10     	;  0x80
      8a:	11 e0       	ldi	r17, 0x01	; 1
      8c:	ae e2       	ldi	r26, 0x2E	; 46
      8e:	b1 e0       	ldi	r27, 0x01	; 1
      90:	01 c0       	rjmp	.+2      	;  0x94
      92:	1d 92       	st	X+, r1
      94:	a5 33       	cpi	r26, 0x35	; 53
      96:	b1 07       	cpc	r27, r17
      98:	e1 f7       	brne	.-8      	;  0x92
      9a:	0e 94 eb 04 	call	0x9d6	;  0x9d6
      9e:	0c 94 b6 09 	jmp	0x136c	;  0x136c
      a2:	0c 94 00 00 	jmp	0	;  0x0
      a6:	fb 01       	movw	r30, r22
      a8:	9f 01       	movw	r18, r30
      aa:	e8 94       	clt
      ac:	42 30       	cpi	r20, 0x02	; 2
      ae:	c4 f0       	brlt	.+48     	;  0xe0
      b0:	45 32       	cpi	r20, 0x25	; 37
      b2:	b4 f4       	brge	.+44     	;  0xe0
      b4:	4a 30       	cpi	r20, 0x0A	; 10
      b6:	29 f4       	brne	.+10     	;  0xc2
      b8:	97 fb       	bst	r25, 7
      ba:	1e f4       	brtc	.+6      	;  0xc2
      bc:	90 95       	com	r25
      be:	81 95       	neg	r24
      c0:	9f 4f       	sbci	r25, 0xFF	; 255
      c2:	64 2f       	mov	r22, r20
      c4:	77 27       	eor	r23, r23
      c6:	0e 94 a2 09 	call	0x1344	;  0x1344
      ca:	80 5d       	subi	r24, 0xD0	; 208
      cc:	8a 33       	cpi	r24, 0x3A	; 58
      ce:	0c f0       	brlt	.+2      	;  0xd2
      d0:	89 5d       	subi	r24, 0xD9	; 217
      d2:	81 93       	st	Z+, r24
      d4:	cb 01       	movw	r24, r22
      d6:	00 97       	sbiw	r24, 0x00	; 0
      d8:	a1 f7       	brne	.-24     	;  0xc2
      da:	16 f4       	brtc	.+4      	;  0xe0
      dc:	5d e2       	ldi	r21, 0x2D	; 45
      de:	51 93       	st	Z+, r21
      e0:	10 82       	st	Z, r1
      e2:	c9 01       	movw	r24, r18
      e4:	0c 94 74 00 	jmp	0xe8	;  0xe8
      e8:	dc 01       	movw	r26, r24
      ea:	fc 01       	movw	r30, r24
      ec:	67 2f       	mov	r22, r23
      ee:	71 91       	ld	r23, Z+
      f0:	77 23       	and	r23, r23
      f2:	e1 f7       	brne	.-8      	;  0xec
      f4:	32 97       	sbiw	r30, 0x02	; 2
      f6:	04 c0       	rjmp	.+8      	;  0x100
      f8:	7c 91       	ld	r23, X
      fa:	6d 93       	st	X+, r22
      fc:	70 83       	st	Z, r23
      fe:	62 91       	ld	r22, -Z
     100:	ae 17       	cp	r26, r30
     102:	bf 07       	cpc	r27, r31
     104:	c8 f3       	brcs	.-14     	;  0xf8
     106:	08 95       	ret
     108:	80 93 7c 00 	sts	0x007C, r24
     10c:	80 91 7c 00 	lds	r24, 0x007C
     110:	80 64       	ori	r24, 0x40	; 64
     112:	80 93 7c 00 	sts	0x007C, r24
     116:	80 91 7c 00 	lds	r24, 0x007C
     11a:	8f 7d       	andi	r24, 0xDF	; 223
     11c:	80 93 7c 00 	sts	0x007C, r24
     120:	80 91 7a 00 	lds	r24, 0x007A
     124:	87 60       	ori	r24, 0x07	; 7
     126:	80 93 7a 00 	sts	0x007A, r24
     12a:	80 91 7a 00 	lds	r24, 0x007A
     12e:	80 68       	ori	r24, 0x80	; 128
     130:	80 93 7a 00 	sts	0x007A, r24
     134:	80 91 7a 00 	lds	r24, 0x007A
     138:	80 64       	ori	r24, 0x40	; 64
     13a:	80 93 7a 00 	sts	0x007A, r24
     13e:	80 91 7a 00 	lds	r24, 0x007A
     142:	86 fd       	sbrc	r24, 6
     144:	fc cf       	rjmp	.-8      	;  0x13e
     146:	90 91 78 00 	lds	r25, 0x0078
     14a:	80 91 79 00 	lds	r24, 0x0079
     14e:	38 2f       	mov	r19, r24
     150:	20 e0       	ldi	r18, 0x00	; 0
     152:	29 0f       	add	r18, r25
     154:	31 1d       	adc	r19, r1
     156:	c9 01       	movw	r24, r18
     158:	08 95       	ret
     15a:	8f 92       	push	r8
     15c:	9f 92       	push	r9
     15e:	af 92       	push	r10
     160:	bf 92       	push	r11
     162:	cf 92       	push	r12
     164:	df 92       	push	r13
     166:	ef 92       	push	r14
     168:	ff 92       	push	r15
     16a:	0f 93       	push	r16
     16c:	1f 93       	push	r17
     16e:	cf 93       	push	r28
     170:	df 93       	push	r29
     172:	80 e0       	ldi	r24, 0x00	; 0
     174:	0e 94 84 00 	call	0x108	;  0x108
     178:	4c 01       	movw	r8, r24
     17a:	81 e0       	ldi	r24, 0x01	; 1
     17c:	0e 94 84 00 	call	0x108	;  0x108
     180:	ec 01       	movw	r28, r24
     182:	82 e0       	ldi	r24, 0x02	; 2
     184:	0e 94 84 00 	call	0x108	;  0x108
     188:	6c 01       	movw	r12, r24
     18a:	83 e0       	ldi	r24, 0x03	; 3
     18c:	0e 94 84 00 	call	0x108	;  0x108
     190:	7c 01       	movw	r14, r24
     192:	5e 01       	movw	r10, r28
     194:	8c 16       	cp	r8, r28
     196:	9d 06       	cpc	r9, r29
     198:	0c f4       	brge	.+2      	;  0x19c
     19a:	54 01       	movw	r10, r8
     19c:	ca 14       	cp	r12, r10
     19e:	db 04       	cpc	r13, r11
     1a0:	0c f4       	brge	.+2      	;  0x1a4
     1a2:	56 01       	movw	r10, r12
     1a4:	ea 14       	cp	r14, r10
     1a6:	fb 04       	cpc	r15, r11
     1a8:	0c f4       	brge	.+2      	;  0x1ac
     1aa:	57 01       	movw	r10, r14
     1ac:	80 e2       	ldi	r24, 0x20	; 32
     1ae:	a8 16       	cp	r10, r24
     1b0:	83 e0       	ldi	r24, 0x03	; 3
     1b2:	b8 06       	cpc	r11, r24
     1b4:	0c f0       	brlt	.+2      	;  0x1b8
     1b6:	b3 c1       	rjmp	.+870    	;  0x51e
     1b8:	ac 16       	cp	r10, r28
     1ba:	bd 06       	cpc	r11, r29
     1bc:	09 f0       	breq	.+2      	;  0x1c0
     1be:	5c c0       	rjmp	.+184    	;  0x278
     1c0:	81 14       	cp	r8, r1
     1c2:	91 04       	cpc	r9, r1
     1c4:	39 f4       	brne	.+14     	;  0x1d4
     1c6:	e1 14       	cp	r14, r1
     1c8:	f1 04       	cpc	r15, r1
     1ca:	21 f4       	brne	.+8      	;  0x1d4
     1cc:	c1 14       	cp	r12, r1
     1ce:	d1 04       	cpc	r13, r1
     1d0:	09 f4       	brne	.+2      	;  0x1d4
     1d2:	a5 c1       	rjmp	.+842    	;  0x51e
     1d4:	e6 01       	movw	r28, r12
     1d6:	8c 14       	cp	r8, r12
     1d8:	9d 04       	cpc	r9, r13
     1da:	0c f4       	brge	.+2      	;  0x1de
     1dc:	e4 01       	movw	r28, r8
     1de:	c8 15       	cp	r28, r8
     1e0:	d9 05       	cpc	r29, r9
     1e2:	d9 f4       	brne	.+54     	;  0x21a
     1e4:	00 d0       	rcall	.+0      	;  0x1e6
     1e6:	80 e0       	ldi	r24, 0x00	; 0
     1e8:	91 e0       	ldi	r25, 0x01	; 1
     1ea:	ed b7       	in	r30, 0x3d	; 61
     1ec:	fe b7       	in	r31, 0x3e	; 62
     1ee:	92 83       	std	Z+2, r25	; 0x02
     1f0:	81 83       	std	Z+1, r24	; 0x01
     1f2:	0e 94 b4 06 	call	0xd68	;  0xd68
     1f6:	00 d0       	rcall	.+0      	;  0x1f8
     1f8:	06 e0       	ldi	r16, 0x06	; 6
     1fa:	11 e0       	ldi	r17, 0x01	; 1
     1fc:	ed b7       	in	r30, 0x3d	; 61
     1fe:	fe b7       	in	r31, 0x3e	; 62
     200:	12 83       	std	Z+2, r17	; 0x02
     202:	01 83       	std	Z+1, r16	; 0x01
     204:	b4 82       	std	Z+4, r11	; 0x04
     206:	a3 82       	std	Z+3, r10	; 0x03
     208:	0e 94 b4 06 	call	0xd68	;  0xd68
     20c:	ed b7       	in	r30, 0x3d	; 61
     20e:	fe b7       	in	r31, 0x3e	; 62
     210:	12 83       	std	Z+2, r17	; 0x02
     212:	01 83       	std	Z+1, r16	; 0x01
     214:	d4 83       	std	Z+4, r29	; 0x04
     216:	c3 83       	std	Z+3, r28	; 0x03
     218:	5e c0       	rjmp	.+188    	;  0x2d6
     21a:	cc 15       	cp	r28, r12
     21c:	dd 05       	cpc	r29, r13
     21e:	09 f0       	breq	.+2      	;  0x222
     220:	7e c1       	rjmp	.+764    	;  0x51e
     222:	00 d0       	rcall	.+0      	;  0x224
     224:	80 e0       	ldi	r24, 0x00	; 0
     226:	91 e0       	ldi	r25, 0x01	; 1
     228:	ed b7       	in	r30, 0x3d	; 61
     22a:	fe b7       	in	r31, 0x3e	; 62
     22c:	92 83       	std	Z+2, r25	; 0x02
     22e:	81 83       	std	Z+1, r24	; 0x01
     230:	0e 94 b4 06 	call	0xd68	;  0xd68
     234:	00 d0       	rcall	.+0      	;  0x236
     236:	06 e0       	ldi	r16, 0x06	; 6
     238:	11 e0       	ldi	r17, 0x01	; 1
     23a:	ed b7       	in	r30, 0x3d	; 61
     23c:	fe b7       	in	r31, 0x3e	; 62
     23e:	12 83       	std	Z+2, r17	; 0x02
     240:	01 83       	std	Z+1, r16	; 0x01
     242:	b4 82       	std	Z+4, r11	; 0x04
     244:	a3 82       	std	Z+3, r10	; 0x03
     246:	0e 94 b4 06 	call	0xd68	;  0xd68
     24a:	ed b7       	in	r30, 0x3d	; 61
     24c:	fe b7       	in	r31, 0x3e	; 62
     24e:	12 83       	std	Z+2, r17	; 0x02
     250:	01 83       	std	Z+1, r16	; 0x01
     252:	94 82       	std	Z+4, r9	; 0x04
     254:	83 82       	std	Z+3, r8	; 0x03
     256:	0e 94 b4 06 	call	0xd68	;  0xd68
     25a:	ed b7       	in	r30, 0x3d	; 61
     25c:	fe b7       	in	r31, 0x3e	; 62
     25e:	12 83       	std	Z+2, r17	; 0x02
     260:	01 83       	std	Z+1, r16	; 0x01
     262:	f4 82       	std	Z+4, r15	; 0x04
     264:	e3 82       	std	Z+3, r14	; 0x03
     266:	0e 94 b4 06 	call	0xd68	;  0xd68
     26a:	ed b7       	in	r30, 0x3d	; 61
     26c:	fe b7       	in	r31, 0x3e	; 62
     26e:	12 83       	std	Z+2, r17	; 0x02
     270:	01 83       	std	Z+1, r16	; 0x01
     272:	d4 83       	std	Z+4, r29	; 0x04
     274:	c3 83       	std	Z+3, r28	; 0x03
     276:	4b c1       	rjmp	.+662    	;  0x50e
     278:	a8 14       	cp	r10, r8
     27a:	b9 04       	cpc	r11, r9
     27c:	09 f0       	breq	.+2      	;  0x280
     27e:	5b c0       	rjmp	.+182    	;  0x336
     280:	20 97       	sbiw	r28, 0x00	; 0
     282:	39 f4       	brne	.+14     	;  0x292
     284:	e1 14       	cp	r14, r1
     286:	f1 04       	cpc	r15, r1
     288:	21 f4       	brne	.+8      	;  0x292
     28a:	c1 14       	cp	r12, r1
     28c:	d1 04       	cpc	r13, r1
     28e:	09 f4       	brne	.+2      	;  0x292
     290:	46 c1       	rjmp	.+652    	;  0x51e
     292:	57 01       	movw	r10, r14
     294:	ce 15       	cp	r28, r14
     296:	df 05       	cpc	r29, r15
     298:	0c f4       	brge	.+2      	;  0x29c
     29a:	5e 01       	movw	r10, r28
     29c:	ac 16       	cp	r10, r28
     29e:	bd 06       	cpc	r11, r29
     2a0:	99 f5       	brne	.+102    	;  0x308
     2a2:	00 d0       	rcall	.+0      	;  0x2a4
     2a4:	80 e0       	ldi	r24, 0x00	; 0
     2a6:	91 e0       	ldi	r25, 0x01	; 1
     2a8:	ed b7       	in	r30, 0x3d	; 61
     2aa:	fe b7       	in	r31, 0x3e	; 62
     2ac:	92 83       	std	Z+2, r25	; 0x02
     2ae:	81 83       	std	Z+1, r24	; 0x01
     2b0:	0e 94 b4 06 	call	0xd68	;  0xd68
     2b4:	00 d0       	rcall	.+0      	;  0x2b6
     2b6:	06 e0       	ldi	r16, 0x06	; 6
     2b8:	11 e0       	ldi	r17, 0x01	; 1
     2ba:	ed b7       	in	r30, 0x3d	; 61
     2bc:	fe b7       	in	r31, 0x3e	; 62
     2be:	12 83       	std	Z+2, r17	; 0x02
     2c0:	01 83       	std	Z+1, r16	; 0x01
     2c2:	b4 82       	std	Z+4, r11	; 0x04
     2c4:	a3 82       	std	Z+3, r10	; 0x03
     2c6:	0e 94 b4 06 	call	0xd68	;  0xd68
     2ca:	ed b7       	in	r30, 0x3d	; 61
     2cc:	fe b7       	in	r31, 0x3e	; 62
     2ce:	12 83       	std	Z+2, r17	; 0x02
     2d0:	01 83       	std	Z+1, r16	; 0x01
     2d2:	94 82       	std	Z+4, r9	; 0x04
     2d4:	83 82       	std	Z+3, r8	; 0x03
     2d6:	0e 94 b4 06 	call	0xd68	;  0xd68
     2da:	ed b7       	in	r30, 0x3d	; 61
     2dc:	fe b7       	in	r31, 0x3e	; 62
     2de:	12 83       	std	Z+2, r17	; 0x02
     2e0:	01 83       	std	Z+1, r16	; 0x01
     2e2:	f4 82       	std	Z+4, r15	; 0x04
     2e4:	e3 82       	std	Z+3, r14	; 0x03
     2e6:	0e 94 b4 06 	call	0xd68	;  0xd68
     2ea:	ed b7       	in	r30, 0x3d	; 61
     2ec:	fe b7       	in	r31, 0x3e	; 62
     2ee:	12 83       	std	Z+2, r17	; 0x02
     2f0:	01 83       	std	Z+1, r16	; 0x01
     2f2:	d4 82       	std	Z+4, r13	; 0x04
     2f4:	c3 82       	std	Z+3, r12	; 0x03
     2f6:	0e 94 b4 06 	call	0xd68	;  0xd68
     2fa:	0f 90       	pop	r0
     2fc:	0f 90       	pop	r0
     2fe:	0f 90       	pop	r0
     300:	0f 90       	pop	r0
     302:	0e 94 4f 05 	call	0xa9e	;  0xa9e
     306:	0b c1       	rjmp	.+534    	;  0x51e
     308:	ae 14       	cp	r10, r14
     30a:	bf 04       	cpc	r11, r15
     30c:	09 f0       	breq	.+2      	;  0x310
     30e:	07 c1       	rjmp	.+526    	;  0x51e
     310:	00 d0       	rcall	.+0      	;  0x312
     312:	80 e0       	ldi	r24, 0x00	; 0
     314:	91 e0       	ldi	r25, 0x01	; 1
     316:	ed b7       	in	r30, 0x3d	; 61
     318:	fe b7       	in	r31, 0x3e	; 62
     31a:	92 83       	std	Z+2, r25	; 0x02
     31c:	81 83       	std	Z+1, r24	; 0x01
     31e:	0e 94 b4 06 	call	0xd68	;  0xd68
     322:	00 d0       	rcall	.+0      	;  0x324
     324:	06 e0       	ldi	r16, 0x06	; 6
     326:	11 e0       	ldi	r17, 0x01	; 1
     328:	ed b7       	in	r30, 0x3d	; 61
     32a:	fe b7       	in	r31, 0x3e	; 62
     32c:	12 83       	std	Z+2, r17	; 0x02
     32e:	01 83       	std	Z+1, r16	; 0x01
     330:	d4 83       	std	Z+4, r29	; 0x04
     332:	c3 83       	std	Z+3, r28	; 0x03
     334:	56 c0       	rjmp	.+172    	;  0x3e2
     336:	ae 14       	cp	r10, r14
     338:	bf 04       	cpc	r11, r15
     33a:	09 f0       	breq	.+2      	;  0x33e
     33c:	73 c0       	rjmp	.+230    	;  0x424
     33e:	20 97       	sbiw	r28, 0x00	; 0
     340:	39 f4       	brne	.+14     	;  0x350
     342:	81 14       	cp	r8, r1
     344:	91 04       	cpc	r9, r1
     346:	21 f4       	brne	.+8      	;  0x350
     348:	c1 14       	cp	r12, r1
     34a:	d1 04       	cpc	r13, r1
     34c:	09 f4       	brne	.+2      	;  0x350
     34e:	e7 c0       	rjmp	.+462    	;  0x51e
     350:	76 01       	movw	r14, r12
     352:	8c 14       	cp	r8, r12
     354:	9d 04       	cpc	r9, r13
     356:	0c f4       	brge	.+2      	;  0x35a
     358:	74 01       	movw	r14, r8
     35a:	ec 14       	cp	r14, r12
     35c:	fd 04       	cpc	r15, r13
     35e:	59 f5       	brne	.+86     	;  0x3b6
     360:	00 d0       	rcall	.+0      	;  0x362
     362:	80 e0       	ldi	r24, 0x00	; 0
     364:	91 e0       	ldi	r25, 0x01	; 1
     366:	ed b7       	in	r30, 0x3d	; 61
     368:	fe b7       	in	r31, 0x3e	; 62
     36a:	92 83       	std	Z+2, r25	; 0x02
     36c:	81 83       	std	Z+1, r24	; 0x01
     36e:	0e 94 b4 06 	call	0xd68	;  0xd68
     372:	00 d0       	rcall	.+0      	;  0x374
     374:	06 e0       	ldi	r16, 0x06	; 6
     376:	11 e0       	ldi	r17, 0x01	; 1
     378:	ed b7       	in	r30, 0x3d	; 61
     37a:	fe b7       	in	r31, 0x3e	; 62
     37c:	12 83       	std	Z+2, r17	; 0x02
     37e:	01 83       	std	Z+1, r16	; 0x01
     380:	d4 83       	std	Z+4, r29	; 0x04
     382:	c3 83       	std	Z+3, r28	; 0x03
     384:	0e 94 b4 06 	call	0xd68	;  0xd68
     388:	ed b7       	in	r30, 0x3d	; 61
     38a:	fe b7       	in	r31, 0x3e	; 62
     38c:	12 83       	std	Z+2, r17	; 0x02
     38e:	01 83       	std	Z+1, r16	; 0x01
     390:	94 82       	std	Z+4, r9	; 0x04
     392:	83 82       	std	Z+3, r8	; 0x03
     394:	0e 94 b4 06 	call	0xd68	;  0xd68
     398:	ed b7       	in	r30, 0x3d	; 61
     39a:	fe b7       	in	r31, 0x3e	; 62
     39c:	12 83       	std	Z+2, r17	; 0x02
     39e:	01 83       	std	Z+1, r16	; 0x01
     3a0:	b4 82       	std	Z+4, r11	; 0x04
     3a2:	a3 82       	std	Z+3, r10	; 0x03
     3a4:	0e 94 b4 06 	call	0xd68	;  0xd68
     3a8:	ed b7       	in	r30, 0x3d	; 61
     3aa:	fe b7       	in	r31, 0x3e	; 62
     3ac:	12 83       	std	Z+2, r17	; 0x02
     3ae:	01 83       	std	Z+1, r16	; 0x01
     3b0:	f4 82       	std	Z+4, r15	; 0x04
     3b2:	e3 82       	std	Z+3, r14	; 0x03
     3b4:	a0 cf       	rjmp	.-192    	;  0x2f6
     3b6:	ec 16       	cp	r14, r28
     3b8:	fd 06       	cpc	r15, r29
     3ba:	09 f0       	breq	.+2      	;  0x3be
     3bc:	b0 c0       	rjmp	.+352    	;  0x51e
     3be:	00 d0       	rcall	.+0      	;  0x3c0
     3c0:	80 e0       	ldi	r24, 0x00	; 0
     3c2:	91 e0       	ldi	r25, 0x01	; 1
     3c4:	ed b7       	in	r30, 0x3d	; 61
     3c6:	fe b7       	in	r31, 0x3e	; 62
     3c8:	92 83       	std	Z+2, r25	; 0x02
     3ca:	81 83       	std	Z+1, r24	; 0x01
     3cc:	0e 94 b4 06 	call	0xd68	;  0xd68
     3d0:	00 d0       	rcall	.+0      	;  0x3d2
     3d2:	06 e0       	ldi	r16, 0x06	; 6
     3d4:	11 e0       	ldi	r17, 0x01	; 1
     3d6:	ed b7       	in	r30, 0x3d	; 61
     3d8:	fe b7       	in	r31, 0x3e	; 62
     3da:	12 83       	std	Z+2, r17	; 0x02
     3dc:	01 83       	std	Z+1, r16	; 0x01
     3de:	f4 82       	std	Z+4, r15	; 0x04
     3e0:	e3 82       	std	Z+3, r14	; 0x03
     3e2:	0e 94 b4 06 	call	0xd68	;  0xd68
     3e6:	ed b7       	in	r30, 0x3d	; 61
     3e8:	fe b7       	in	r31, 0x3e	; 62
     3ea:	12 83       	std	Z+2, r17	; 0x02
     3ec:	01 83       	std	Z+1, r16	; 0x01
     3ee:	94 82       	std	Z+4, r9	; 0x04
     3f0:	83 82       	std	Z+3, r8	; 0x03
     3f2:	0e 94 b4 06 	call	0xd68	;  0xd68
     3f6:	ed b7       	in	r30, 0x3d	; 61
     3f8:	fe b7       	in	r31, 0x3e	; 62
     3fa:	12 83       	std	Z+2, r17	; 0x02
     3fc:	01 83       	std	Z+1, r16	; 0x01
     3fe:	b4 82       	std	Z+4, r11	; 0x04
     400:	a3 82       	std	Z+3, r10	; 0x03
     402:	0e 94 b4 06 	call	0xd68	;  0xd68
     406:	ed b7       	in	r30, 0x3d	; 61
     408:	fe b7       	in	r31, 0x3e	; 62
     40a:	12 83       	std	Z+2, r17	; 0x02
     40c:	01 83       	std	Z+1, r16	; 0x01
     40e:	d4 82       	std	Z+4, r13	; 0x04
     410:	c3 82       	std	Z+3, r12	; 0x03
     412:	0e 94 b4 06 	call	0xd68	;  0xd68
     416:	0f 90       	pop	r0
     418:	0f 90       	pop	r0
     41a:	0f 90       	pop	r0
     41c:	0f 90       	pop	r0
     41e:	0e 94 9c 02 	call	0x538	;  0x538
     422:	7d c0       	rjmp	.+250    	;  0x51e
     424:	ac 14       	cp	r10, r12
     426:	bd 04       	cpc	r11, r13
     428:	09 f0       	breq	.+2      	;  0x42c
     42a:	79 c0       	rjmp	.+242    	;  0x51e
     42c:	81 14       	cp	r8, r1
     42e:	91 04       	cpc	r9, r1
     430:	31 f4       	brne	.+12     	;  0x43e
     432:	e1 14       	cp	r14, r1
     434:	f1 04       	cpc	r15, r1
     436:	19 f4       	brne	.+6      	;  0x43e
     438:	20 97       	sbiw	r28, 0x00	; 0
     43a:	09 f4       	brne	.+2      	;  0x43e
     43c:	70 c0       	rjmp	.+224    	;  0x51e
     43e:	67 01       	movw	r12, r14
     440:	ce 15       	cp	r28, r14
     442:	df 05       	cpc	r29, r15
     444:	0c f4       	brge	.+2      	;  0x448
     446:	6e 01       	movw	r12, r28
     448:	ce 14       	cp	r12, r14
     44a:	df 04       	cpc	r13, r15
     44c:	99 f5       	brne	.+102    	;  0x4b4
     44e:	00 d0       	rcall	.+0      	;  0x450
     450:	80 e0       	ldi	r24, 0x00	; 0
     452:	91 e0       	ldi	r25, 0x01	; 1
     454:	ed b7       	in	r30, 0x3d	; 61
     456:	fe b7       	in	r31, 0x3e	; 62
     458:	92 83       	std	Z+2, r25	; 0x02
     45a:	81 83       	std	Z+1, r24	; 0x01
     45c:	0e 94 b4 06 	call	0xd68	;  0xd68
     460:	00 d0       	rcall	.+0      	;  0x462
     462:	06 e0       	ldi	r16, 0x06	; 6
     464:	11 e0       	ldi	r17, 0x01	; 1
     466:	ed b7       	in	r30, 0x3d	; 61
     468:	fe b7       	in	r31, 0x3e	; 62
     46a:	12 83       	std	Z+2, r17	; 0x02
     46c:	01 83       	std	Z+1, r16	; 0x01
     46e:	d4 83       	std	Z+4, r29	; 0x04
     470:	c3 83       	std	Z+3, r28	; 0x03
     472:	0e 94 b4 06 	call	0xd68	;  0xd68
     476:	ed b7       	in	r30, 0x3d	; 61
     478:	fe b7       	in	r31, 0x3e	; 62
     47a:	12 83       	std	Z+2, r17	; 0x02
     47c:	01 83       	std	Z+1, r16	; 0x01
     47e:	94 82       	std	Z+4, r9	; 0x04
     480:	83 82       	std	Z+3, r8	; 0x03
     482:	0e 94 b4 06 	call	0xd68	;  0xd68
     486:	ed b7       	in	r30, 0x3d	; 61
     488:	fe b7       	in	r31, 0x3e	; 62
     48a:	12 83       	std	Z+2, r17	; 0x02
     48c:	01 83       	std	Z+1, r16	; 0x01
     48e:	d4 82       	std	Z+4, r13	; 0x04
     490:	c3 82       	std	Z+3, r12	; 0x03
     492:	0e 94 b4 06 	call	0xd68	;  0xd68
     496:	ed b7       	in	r30, 0x3d	; 61
     498:	fe b7       	in	r31, 0x3e	; 62
     49a:	12 83       	std	Z+2, r17	; 0x02
     49c:	01 83       	std	Z+1, r16	; 0x01
     49e:	b4 82       	std	Z+4, r11	; 0x04
     4a0:	a3 82       	std	Z+3, r10	; 0x03
     4a2:	0e 94 b4 06 	call	0xd68	;  0xd68
     4a6:	0f 90       	pop	r0
     4a8:	0f 90       	pop	r0
     4aa:	0f 90       	pop	r0
     4ac:	0f 90       	pop	r0
     4ae:	0e 94 6d 05 	call	0xada	;  0xada
     4b2:	35 c0       	rjmp	.+106    	;  0x51e
     4b4:	cc 16       	cp	r12, r28
     4b6:	dd 06       	cpc	r13, r29
     4b8:	91 f5       	brne	.+100    	;  0x51e
     4ba:	00 d0       	rcall	.+0      	;  0x4bc
     4bc:	80 e0       	ldi	r24, 0x00	; 0
     4be:	91 e0       	ldi	r25, 0x01	; 1
     4c0:	ed b7       	in	r30, 0x3d	; 61
     4c2:	fe b7       	in	r31, 0x3e	; 62
     4c4:	92 83       	std	Z+2, r25	; 0x02
     4c6:	81 83       	std	Z+1, r24	; 0x01
     4c8:	0e 94 b4 06 	call	0xd68	;  0xd68
     4cc:	00 d0       	rcall	.+0      	;  0x4ce
     4ce:	06 e0       	ldi	r16, 0x06	; 6
     4d0:	11 e0       	ldi	r17, 0x01	; 1
     4d2:	ed b7       	in	r30, 0x3d	; 61
     4d4:	fe b7       	in	r31, 0x3e	; 62
     4d6:	12 83       	std	Z+2, r17	; 0x02
     4d8:	01 83       	std	Z+1, r16	; 0x01
     4da:	d4 82       	std	Z+4, r13	; 0x04
     4dc:	c3 82       	std	Z+3, r12	; 0x03
     4de:	0e 94 b4 06 	call	0xd68	;  0xd68
     4e2:	ed b7       	in	r30, 0x3d	; 61
     4e4:	fe b7       	in	r31, 0x3e	; 62
     4e6:	12 83       	std	Z+2, r17	; 0x02
     4e8:	01 83       	std	Z+1, r16	; 0x01
     4ea:	94 82       	std	Z+4, r9	; 0x04
     4ec:	83 82       	std	Z+3, r8	; 0x03
     4ee:	0e 94 b4 06 	call	0xd68	;  0xd68
     4f2:	ed b7       	in	r30, 0x3d	; 61
     4f4:	fe b7       	in	r31, 0x3e	; 62
     4f6:	12 83       	std	Z+2, r17	; 0x02
     4f8:	01 83       	std	Z+1, r16	; 0x01
     4fa:	f4 82       	std	Z+4, r15	; 0x04
     4fc:	e3 82       	std	Z+3, r14	; 0x03
     4fe:	0e 94 b4 06 	call	0xd68	;  0xd68
     502:	ed b7       	in	r30, 0x3d	; 61
     504:	fe b7       	in	r31, 0x3e	; 62
     506:	12 83       	std	Z+2, r17	; 0x02
     508:	01 83       	std	Z+1, r16	; 0x01
     50a:	b4 82       	std	Z+4, r11	; 0x04
     50c:	a3 82       	std	Z+3, r10	; 0x03
     50e:	0e 94 b4 06 	call	0xd68	;  0xd68
     512:	0f 90       	pop	r0
     514:	0f 90       	pop	r0
     516:	0f 90       	pop	r0
     518:	0f 90       	pop	r0
     51a:	0e 94 d4 02 	call	0x5a8	;  0x5a8
     51e:	df 91       	pop	r29
     520:	cf 91       	pop	r28
     522:	1f 91       	pop	r17
     524:	0f 91       	pop	r16
     526:	ff 90       	pop	r15
     528:	ef 90       	pop	r14
     52a:	df 90       	pop	r13
     52c:	cf 90       	pop	r12
     52e:	bf 90       	pop	r11
     530:	af 90       	pop	r10
     532:	9f 90       	pop	r9
     534:	8f 90       	pop	r8
     536:	08 95       	ret
     538:	80 91 2e 01 	lds	r24, 0x012E
     53c:	90 91 2f 01 	lds	r25, 0x012F
     540:	02 97       	sbiw	r24, 0x02	; 2
     542:	8c f5       	brge	.+98     	;  0x5a6
     544:	0e 94 12 03 	call	0x624	;  0x624
     548:	80 91 86 00 	lds	r24, 0x0086
     54c:	90 91 87 00 	lds	r25, 0x0087
     550:	86 58       	subi	r24, 0x86	; 134
     552:	9b 40       	sbci	r25, 0x0B	; 11
     554:	90 93 8b 00 	sts	0x008B, r25
     558:	80 93 8a 00 	sts	0x008A, r24
     55c:	8a e7       	ldi	r24, 0x7A	; 122
     55e:	9f e3       	ldi	r25, 0x3F	; 63
     560:	20 e9       	ldi	r18, 0x90	; 144
     562:	31 e0       	ldi	r19, 0x01	; 1
     564:	f9 01       	movw	r30, r18
     566:	31 97       	sbiw	r30, 0x01	; 1
     568:	f1 f7       	brne	.-4      	;  0x566
     56a:	01 97       	sbiw	r24, 0x01	; 1
     56c:	d9 f7       	brne	.-10     	;  0x564
     56e:	80 91 86 00 	lds	r24, 0x0086
     572:	90 91 87 00 	lds	r25, 0x0087
     576:	8d 56       	subi	r24, 0x6D	; 109
     578:	9b 40       	sbci	r25, 0x0B	; 11
     57a:	90 93 8b 00 	sts	0x008B, r25
     57e:	80 93 8a 00 	sts	0x008A, r24
     582:	80 91 30 01 	lds	r24, 0x0130
     586:	90 91 31 01 	lds	r25, 0x0131
     58a:	01 97       	sbiw	r24, 0x01	; 1
     58c:	90 93 31 01 	sts	0x0131, r25
     590:	80 93 30 01 	sts	0x0130, r24
     594:	80 91 2e 01 	lds	r24, 0x012E
     598:	90 91 2f 01 	lds	r25, 0x012F
     59c:	01 96       	adiw	r24, 0x01	; 1
     59e:	90 93 2f 01 	sts	0x012F, r25
     5a2:	80 93 2e 01 	sts	0x012E, r24
     5a6:	08 95       	ret
     5a8:	8f e3       	ldi	r24, 0x3F	; 63
     5aa:	9c e9       	ldi	r25, 0x9C	; 156
     5ac:	90 93 87 00 	sts	0x0087, r25
     5b0:	80 93 86 00 	sts	0x0086, r24
     5b4:	80 91 30 01 	lds	r24, 0x0130
     5b8:	90 91 31 01 	lds	r25, 0x0131
     5bc:	02 97       	sbiw	r24, 0x02	; 2
     5be:	8c f5       	brge	.+98     	;  0x622
     5c0:	0e 94 12 03 	call	0x624	;  0x624
     5c4:	80 91 86 00 	lds	r24, 0x0086
     5c8:	90 91 87 00 	lds	r25, 0x0087
     5cc:	84 55       	subi	r24, 0x54	; 84
     5ce:	9b 40       	sbci	r25, 0x0B	; 11
     5d0:	90 93 8b 00 	sts	0x008B, r25
     5d4:	80 93 8a 00 	sts	0x008A, r24
     5d8:	8a e7       	ldi	r24, 0x7A	; 122
     5da:	9f e3       	ldi	r25, 0x3F	; 63
     5dc:	20 e9       	ldi	r18, 0x90	; 144
     5de:	31 e0       	ldi	r19, 0x01	; 1
     5e0:	f9 01       	movw	r30, r18
     5e2:	31 97       	sbiw	r30, 0x01	; 1
     5e4:	f1 f7       	brne	.-4      	;  0x5e2
     5e6:	01 97       	sbiw	r24, 0x01	; 1
     5e8:	d9 f7       	brne	.-10     	;  0x5e0
     5ea:	80 91 86 00 	lds	r24, 0x0086
     5ee:	90 91 87 00 	lds	r25, 0x0087
     5f2:	8d 56       	subi	r24, 0x6D	; 109
     5f4:	9b 40       	sbci	r25, 0x0B	; 11
     5f6:	90 93 8b 00 	sts	0x008B, r25
     5fa:	80 93 8a 00 	sts	0x008A, r24
     5fe:	80 91 2e 01 	lds	r24, 0x012E
     602:	90 91 2f 01 	lds	r25, 0x012F
     606:	01 97       	sbiw	r24, 0x01	; 1
     608:	90 93 2f 01 	sts	0x012F, r25
     60c:	80 93 2e 01 	sts	0x012E, r24
     610:	80 91 30 01 	lds	r24, 0x0130
     614:	90 91 31 01 	lds	r25, 0x0131
     618:	01 96       	adiw	r24, 0x01	; 1
     61a:	90 93 31 01 	sts	0x0131, r25
     61e:	80 93 30 01 	sts	0x0130, r24
     622:	08 95       	ret
     624:	af 92       	push	r10
     626:	bf 92       	push	r11
     628:	cf 92       	push	r12
     62a:	df 92       	push	r13
     62c:	ff 92       	push	r15
     62e:	0f 93       	push	r16
     630:	1f 93       	push	r17
     632:	df 93       	push	r29
     634:	cf 93       	push	r28
     636:	cd b7       	in	r28, 0x3d	; 61
     638:	de b7       	in	r29, 0x3e	; 62
     63a:	60 97       	sbiw	r28, 0x10	; 16
     63c:	0f b6       	in	r0, 0x3f	; 63
     63e:	f8 94       	cli
     640:	de bf       	out	0x3e, r29	; 62
     642:	0f be       	out	0x3f, r0	; 63
     644:	cd bf       	out	0x3d, r28	; 61
     646:	80 e5       	ldi	r24, 0x50	; 80
     648:	0e 94 9c 04 	call	0x938	;  0x938
     64c:	8a e1       	ldi	r24, 0x1A	; 26
     64e:	0e 94 cf 04 	call	0x99e	;  0x99e
     652:	81 e5       	ldi	r24, 0x51	; 81
     654:	0e 94 c4 04 	call	0x988	;  0x988
     658:	0e 94 e1 04 	call	0x9c2	;  0x9c2
     65c:	08 2f       	mov	r16, r24
     65e:	0e 94 c7 04 	call	0x98e	;  0x98e
     662:	80 e5       	ldi	r24, 0x50	; 80
     664:	0e 94 9c 04 	call	0x938	;  0x938
     668:	8b e1       	ldi	r24, 0x1B	; 27
     66a:	0e 94 cf 04 	call	0x99e	;  0x99e
     66e:	81 e5       	ldi	r24, 0x51	; 81
     670:	0e 94 c4 04 	call	0x988	;  0x988
     674:	0e 94 e1 04 	call	0x9c2	;  0x9c2
     678:	f8 2e       	mov	r15, r24
     67a:	0e 94 c7 04 	call	0x98e	;  0x98e
     67e:	7f 2d       	mov	r23, r15
     680:	60 e0       	ldi	r22, 0x00	; 0
     682:	10 e0       	ldi	r17, 0x00	; 0
     684:	60 2b       	or	r22, r16
     686:	71 2b       	or	r23, r17
     688:	88 27       	eor	r24, r24
     68a:	77 fd       	sbrc	r23, 7
     68c:	80 95       	com	r24
     68e:	98 2f       	mov	r25, r24
     690:	0e 94 72 08 	call	0x10e4	;  0x10e4
     694:	20 e0       	ldi	r18, 0x00	; 0
     696:	30 e0       	ldi	r19, 0x00	; 0
     698:	40 e8       	ldi	r20, 0x80	; 128
     69a:	5d e3       	ldi	r21, 0x3D	; 61
     69c:	0e 94 fe 08 	call	0x11fc	;  0x11fc
     6a0:	0e 94 3f 08 	call	0x107e	;  0x107e
     6a4:	dc 01       	movw	r26, r24
     6a6:	cb 01       	movw	r24, r22
     6a8:	6e 01       	movw	r12, r28
     6aa:	08 94       	sec
     6ac:	c1 1c       	adc	r12, r1
     6ae:	d1 1c       	adc	r13, r1
     6b0:	b6 01       	movw	r22, r12
     6b2:	4a e0       	ldi	r20, 0x0A	; 10
     6b4:	50 e0       	ldi	r21, 0x00	; 0
     6b6:	0e 94 53 00 	call	0xa6	;  0xa6
     6ba:	00 d0       	rcall	.+0      	;  0x6bc
     6bc:	8a e0       	ldi	r24, 0x0A	; 10
     6be:	91 e0       	ldi	r25, 0x01	; 1
     6c0:	ed b7       	in	r30, 0x3d	; 61
     6c2:	fe b7       	in	r31, 0x3e	; 62
     6c4:	92 83       	std	Z+2, r25	; 0x02
     6c6:	81 83       	std	Z+1, r24	; 0x01
     6c8:	0e 94 b4 06 	call	0xd68	;  0xd68
     6cc:	00 d0       	rcall	.+0      	;  0x6ce
     6ce:	81 e1       	ldi	r24, 0x11	; 17
     6d0:	a8 2e       	mov	r10, r24
     6d2:	81 e0       	ldi	r24, 0x01	; 1
     6d4:	b8 2e       	mov	r11, r24
     6d6:	ed b7       	in	r30, 0x3d	; 61
     6d8:	fe b7       	in	r31, 0x3e	; 62
     6da:	b2 82       	std	Z+2, r11	; 0x02
     6dc:	a1 82       	std	Z+1, r10	; 0x01
     6de:	d4 82       	std	Z+4, r13	; 0x04
     6e0:	c3 82       	std	Z+3, r12	; 0x03
     6e2:	0e 94 b4 06 	call	0xd68	;  0xd68
     6e6:	0f 90       	pop	r0
     6e8:	0f 90       	pop	r0
     6ea:	0f 90       	pop	r0
     6ec:	0f 90       	pop	r0
     6ee:	80 e5       	ldi	r24, 0x50	; 80
     6f0:	0e 94 9c 04 	call	0x938	;  0x938
     6f4:	8c e1       	ldi	r24, 0x1C	; 28
     6f6:	0e 94 cf 04 	call	0x99e	;  0x99e
     6fa:	81 e5       	ldi	r24, 0x51	; 81
     6fc:	0e 94 c4 04 	call	0x988	;  0x988
     700:	0e 94 e1 04 	call	0x9c2	;  0x9c2
     704:	08 2f       	mov	r16, r24
     706:	0e 94 c7 04 	call	0x98e	;  0x98e
     70a:	80 e5       	ldi	r24, 0x50	; 80
     70c:	0e 94 9c 04 	call	0x938	;  0x938
     710:	8d e1       	ldi	r24, 0x1D	; 29
     712:	0e 94 cf 04 	call	0x99e	;  0x99e
     716:	81 e5       	ldi	r24, 0x51	; 81
     718:	0e 94 c4 04 	call	0x988	;  0x988
     71c:	0e 94 e1 04 	call	0x9c2	;  0x9c2
     720:	f8 2e       	mov	r15, r24
     722:	0e 94 c7 04 	call	0x98e	;  0x98e
     726:	7f 2d       	mov	r23, r15
     728:	60 e0       	ldi	r22, 0x00	; 0
     72a:	10 e0       	ldi	r17, 0x00	; 0
     72c:	60 2b       	or	r22, r16
     72e:	71 2b       	or	r23, r17
     730:	88 27       	eor	r24, r24
     732:	77 fd       	sbrc	r23, 7
     734:	80 95       	com	r24
     736:	98 2f       	mov	r25, r24
     738:	0e 94 72 08 	call	0x10e4	;  0x10e4
     73c:	20 e0       	ldi	r18, 0x00	; 0
     73e:	30 e0       	ldi	r19, 0x00	; 0
     740:	40 e8       	ldi	r20, 0x80	; 128
     742:	5d e3       	ldi	r21, 0x3D	; 61
     744:	0e 94 fe 08 	call	0x11fc	;  0x11fc
     748:	0e 94 3f 08 	call	0x107e	;  0x107e
     74c:	dc 01       	movw	r26, r24
     74e:	cb 01       	movw	r24, r22
     750:	b6 01       	movw	r22, r12
     752:	4a e0       	ldi	r20, 0x0A	; 10
     754:	50 e0       	ldi	r21, 0x00	; 0
     756:	0e 94 53 00 	call	0xa6	;  0xa6
     75a:	00 d0       	rcall	.+0      	;  0x75c
     75c:	00 d0       	rcall	.+0      	;  0x75e
     75e:	ed b7       	in	r30, 0x3d	; 61
     760:	fe b7       	in	r31, 0x3e	; 62
     762:	b2 82       	std	Z+2, r11	; 0x02
     764:	a1 82       	std	Z+1, r10	; 0x01
     766:	d4 82       	std	Z+4, r13	; 0x04
     768:	c3 82       	std	Z+3, r12	; 0x03
     76a:	0e 94 b4 06 	call	0xd68	;  0xd68
     76e:	0f 90       	pop	r0
     770:	0f 90       	pop	r0
     772:	0f 90       	pop	r0
     774:	0f 90       	pop	r0
     776:	80 e5       	ldi	r24, 0x50	; 80
     778:	0e 94 9c 04 	call	0x938	;  0x938
     77c:	8e e1       	ldi	r24, 0x1E	; 30
     77e:	0e 94 cf 04 	call	0x99e	;  0x99e
     782:	81 e5       	ldi	r24, 0x51	; 81
     784:	0e 94 c4 04 	call	0x988	;  0x988
     788:	0e 94 e1 04 	call	0x9c2	;  0x9c2
     78c:	08 2f       	mov	r16, r24
     78e:	0e 94 c7 04 	call	0x98e	;  0x98e
     792:	80 e5       	ldi	r24, 0x50	; 80
     794:	0e 94 9c 04 	call	0x938	;  0x938
     798:	8f e1       	ldi	r24, 0x1F	; 31
     79a:	0e 94 cf 04 	call	0x99e	;  0x99e
     79e:	81 e5       	ldi	r24, 0x51	; 81
     7a0:	0e 94 c4 04 	call	0x988	;  0x988
     7a4:	0e 94 e1 04 	call	0x9c2	;  0x9c2
     7a8:	f8 2e       	mov	r15, r24
     7aa:	0e 94 c7 04 	call	0x98e	;  0x98e
     7ae:	7f 2d       	mov	r23, r15
     7b0:	60 e0       	ldi	r22, 0x00	; 0
     7b2:	10 e0       	ldi	r17, 0x00	; 0
     7b4:	60 2b       	or	r22, r16
     7b6:	71 2b       	or	r23, r17
     7b8:	88 27       	eor	r24, r24
     7ba:	77 fd       	sbrc	r23, 7
     7bc:	80 95       	com	r24
     7be:	98 2f       	mov	r25, r24
     7c0:	0e 94 72 08 	call	0x10e4	;  0x10e4
     7c4:	20 e0       	ldi	r18, 0x00	; 0
     7c6:	30 e0       	ldi	r19, 0x00	; 0
     7c8:	40 e8       	ldi	r20, 0x80	; 128
     7ca:	5d e3       	ldi	r21, 0x3D	; 61
     7cc:	0e 94 fe 08 	call	0x11fc	;  0x11fc
     7d0:	0e 94 3f 08 	call	0x107e	;  0x107e
     7d4:	dc 01       	movw	r26, r24
     7d6:	cb 01       	movw	r24, r22
     7d8:	b6 01       	movw	r22, r12
     7da:	4a e0       	ldi	r20, 0x0A	; 10
     7dc:	50 e0       	ldi	r21, 0x00	; 0
     7de:	0e 94 53 00 	call	0xa6	;  0xa6
     7e2:	00 d0       	rcall	.+0      	;  0x7e4
     7e4:	00 d0       	rcall	.+0      	;  0x7e6
     7e6:	ed b7       	in	r30, 0x3d	; 61
     7e8:	fe b7       	in	r31, 0x3e	; 62
     7ea:	b2 82       	std	Z+2, r11	; 0x02
     7ec:	a1 82       	std	Z+1, r10	; 0x01
     7ee:	d4 82       	std	Z+4, r13	; 0x04
     7f0:	c3 82       	std	Z+3, r12	; 0x03
     7f2:	0e 94 b4 06 	call	0xd68	;  0xd68
     7f6:	0f 90       	pop	r0
     7f8:	0f 90       	pop	r0
     7fa:	0f 90       	pop	r0
     7fc:	0f 90       	pop	r0
     7fe:	60 96       	adiw	r28, 0x10	; 16
     800:	0f b6       	in	r0, 0x3f	; 63
     802:	f8 94       	cli
     804:	de bf       	out	0x3e, r29	; 62
     806:	0f be       	out	0x3f, r0	; 63
     808:	cd bf       	out	0x3d, r28	; 61
     80a:	cf 91       	pop	r28
     80c:	df 91       	pop	r29
     80e:	1f 91       	pop	r17
     810:	0f 91       	pop	r16
     812:	ff 90       	pop	r15
     814:	df 90       	pop	r13
     816:	cf 90       	pop	r12
     818:	bf 90       	pop	r11
     81a:	af 90       	pop	r10
     81c:	08 95       	ret
     81e:	cf 92       	push	r12
     820:	df 92       	push	r13
     822:	ef 92       	push	r14
     824:	ff 92       	push	r15
     826:	1f 93       	push	r17
     828:	df 93       	push	r29
     82a:	cf 93       	push	r28
     82c:	cd b7       	in	r28, 0x3d	; 61
     82e:	de b7       	in	r29, 0x3e	; 62
     830:	60 97       	sbiw	r28, 0x10	; 16
     832:	0f b6       	in	r0, 0x3f	; 63
     834:	f8 94       	cli
     836:	de bf       	out	0x3e, r29	; 62
     838:	0f be       	out	0x3f, r0	; 63
     83a:	cd bf       	out	0x3d, r28	; 61
     83c:	80 e5       	ldi	r24, 0x50	; 80
     83e:	0e 94 9c 04 	call	0x938	;  0x938
     842:	85 e3       	ldi	r24, 0x35	; 53
     844:	0e 94 cf 04 	call	0x99e	;  0x99e
     848:	81 e5       	ldi	r24, 0x51	; 81
     84a:	0e 94 c4 04 	call	0x988	;  0x988
     84e:	0e 94 e1 04 	call	0x9c2	;  0x9c2
     852:	18 2f       	mov	r17, r24
     854:	0e 94 c7 04 	call	0x98e	;  0x98e
     858:	6e 01       	movw	r12, r28
     85a:	08 94       	sec
     85c:	c1 1c       	adc	r12, r1
     85e:	d1 1c       	adc	r13, r1
     860:	95 e1       	ldi	r25, 0x15	; 21
     862:	e9 2e       	mov	r14, r25
     864:	91 e0       	ldi	r25, 0x01	; 1
     866:	f9 2e       	mov	r15, r25
     868:	28 c0       	rjmp	.+80     	;  0x8ba
     86a:	80 e5       	ldi	r24, 0x50	; 80
     86c:	0e 94 9c 04 	call	0x938	;  0x938
     870:	85 e3       	ldi	r24, 0x35	; 53
     872:	0e 94 cf 04 	call	0x99e	;  0x99e
     876:	81 e5       	ldi	r24, 0x51	; 81
     878:	0e 94 c4 04 	call	0x988	;  0x988
     87c:	0e 94 e1 04 	call	0x9c2	;  0x9c2
     880:	18 2f       	mov	r17, r24
     882:	0e 94 c7 04 	call	0x98e	;  0x98e
     886:	81 2f       	mov	r24, r17
     888:	90 e0       	ldi	r25, 0x00	; 0
     88a:	b6 01       	movw	r22, r12
     88c:	4a e0       	ldi	r20, 0x0A	; 10
     88e:	50 e0       	ldi	r21, 0x00	; 0
     890:	0e 94 53 00 	call	0xa6	;  0xa6
     894:	00 d0       	rcall	.+0      	;  0x896
     896:	00 d0       	rcall	.+0      	;  0x898
     898:	ed b7       	in	r30, 0x3d	; 61
     89a:	fe b7       	in	r31, 0x3e	; 62
     89c:	31 96       	adiw	r30, 0x01	; 1
     89e:	ad b7       	in	r26, 0x3d	; 61
     8a0:	be b7       	in	r27, 0x3e	; 62
     8a2:	12 96       	adiw	r26, 0x02	; 2
     8a4:	fc 92       	st	X, r15
     8a6:	ee 92       	st	-X, r14
     8a8:	11 97       	sbiw	r26, 0x01	; 1
     8aa:	12 83       	std	Z+2, r17	; 0x02
     8ac:	13 82       	std	Z+3, r1	; 0x03
     8ae:	0e 94 b4 06 	call	0xd68	;  0xd68
     8b2:	0f 90       	pop	r0
     8b4:	0f 90       	pop	r0
     8b6:	0f 90       	pop	r0
     8b8:	0f 90       	pop	r0
     8ba:	1f 3f       	cpi	r17, 0xFF	; 255
     8bc:	b1 f6       	brne	.-84     	;  0x86a
     8be:	60 96       	adiw	r28, 0x10	; 16
     8c0:	0f b6       	in	r0, 0x3f	; 63
     8c2:	f8 94       	cli
     8c4:	de bf       	out	0x3e, r29	; 62
     8c6:	0f be       	out	0x3f, r0	; 63
     8c8:	cd bf       	out	0x3d, r28	; 61
     8ca:	cf 91       	pop	r28
     8cc:	df 91       	pop	r29
     8ce:	1f 91       	pop	r17
     8d0:	ff 90       	pop	r15
     8d2:	ef 90       	pop	r14
     8d4:	df 90       	pop	r13
     8d6:	cf 90       	pop	r12
     8d8:	08 95       	ret
     8da:	10 92 b9 00 	sts	0x00B9, r1
     8de:	86 e4       	ldi	r24, 0x46	; 70
     8e0:	80 93 b8 00 	sts	0x00B8, r24
     8e4:	84 e0       	ldi	r24, 0x04	; 4
     8e6:	80 93 bc 00 	sts	0x00BC, r24
     8ea:	08 95       	ret
     8ec:	98 2f       	mov	r25, r24
     8ee:	84 ea       	ldi	r24, 0xA4	; 164
     8f0:	80 93 bc 00 	sts	0x00BC, r24
     8f4:	80 91 bc 00 	lds	r24, 0x00BC
     8f8:	87 ff       	sbrs	r24, 7
     8fa:	fc cf       	rjmp	.-8      	;  0x8f4
     8fc:	80 91 b9 00 	lds	r24, 0x00B9
     900:	88 7f       	andi	r24, 0xF8	; 248
     902:	88 30       	cpi	r24, 0x08	; 8
     904:	21 f0       	breq	.+8      	;  0x90e
     906:	80 31       	cpi	r24, 0x10	; 16
     908:	11 f0       	breq	.+4      	;  0x90e
     90a:	81 e0       	ldi	r24, 0x01	; 1
     90c:	08 95       	ret
     90e:	90 93 bb 00 	sts	0x00BB, r25
     912:	84 e8       	ldi	r24, 0x84	; 132
     914:	80 93 bc 00 	sts	0x00BC, r24
     918:	80 91 bc 00 	lds	r24, 0x00BC
     91c:	87 ff       	sbrs	r24, 7
     91e:	fc cf       	rjmp	.-8      	;  0x918
     920:	90 91 b9 00 	lds	r25, 0x00B9
     924:	98 7f       	andi	r25, 0xF8	; 248
     926:	98 31       	cpi	r25, 0x18	; 24
     928:	11 f4       	brne	.+4      	;  0x92e
     92a:	80 e0       	ldi	r24, 0x00	; 0
     92c:	08 95       	ret
     92e:	80 e0       	ldi	r24, 0x00	; 0
     930:	90 34       	cpi	r25, 0x40	; 64
     932:	09 f0       	breq	.+2      	;  0x936
     934:	81 e0       	ldi	r24, 0x01	; 1
     936:	08 95       	ret
     938:	98 2f       	mov	r25, r24
     93a:	44 ea       	ldi	r20, 0xA4	; 164
     93c:	34 e8       	ldi	r19, 0x84	; 132
     93e:	24 e9       	ldi	r18, 0x94	; 148
     940:	40 93 bc 00 	sts	0x00BC, r20
     944:	80 91 bc 00 	lds	r24, 0x00BC
     948:	87 ff       	sbrs	r24, 7
     94a:	fc cf       	rjmp	.-8      	;  0x944
     94c:	80 91 b9 00 	lds	r24, 0x00B9
     950:	88 7f       	andi	r24, 0xF8	; 248
     952:	88 30       	cpi	r24, 0x08	; 8
     954:	11 f0       	breq	.+4      	;  0x95a
     956:	80 31       	cpi	r24, 0x10	; 16
     958:	99 f7       	brne	.-26     	;  0x940
     95a:	90 93 bb 00 	sts	0x00BB, r25
     95e:	30 93 bc 00 	sts	0x00BC, r19
     962:	80 91 bc 00 	lds	r24, 0x00BC
     966:	87 ff       	sbrs	r24, 7
     968:	fc cf       	rjmp	.-8      	;  0x962
     96a:	80 91 b9 00 	lds	r24, 0x00B9
     96e:	88 7f       	andi	r24, 0xF8	; 248
     970:	80 32       	cpi	r24, 0x20	; 32
     972:	11 f0       	breq	.+4      	;  0x978
     974:	88 35       	cpi	r24, 0x58	; 88
     976:	39 f4       	brne	.+14     	;  0x986
     978:	20 93 bc 00 	sts	0x00BC, r18
     97c:	80 91 bc 00 	lds	r24, 0x00BC
     980:	84 fd       	sbrc	r24, 4
     982:	fc cf       	rjmp	.-8      	;  0x97c
     984:	dd cf       	rjmp	.-70     	;  0x940
     986:	08 95       	ret
     988:	0e 94 76 04 	call	0x8ec	;  0x8ec
     98c:	08 95       	ret
     98e:	84 e9       	ldi	r24, 0x94	; 148
     990:	80 93 bc 00 	sts	0x00BC, r24
     994:	80 91 bc 00 	lds	r24, 0x00BC
     998:	84 fd       	sbrc	r24, 4
     99a:	fc cf       	rjmp	.-8      	;  0x994
     99c:	08 95       	ret
     99e:	80 93 bb 00 	sts	0x00BB, r24
     9a2:	84 e8       	ldi	r24, 0x84	; 132
     9a4:	80 93 bc 00 	sts	0x00BC, r24
     9a8:	80 91 bc 00 	lds	r24, 0x00BC
     9ac:	87 ff       	sbrs	r24, 7
     9ae:	fc cf       	rjmp	.-8      	;  0x9a8
     9b0:	80 91 b9 00 	lds	r24, 0x00B9
     9b4:	90 e0       	ldi	r25, 0x00	; 0
     9b6:	88 7f       	andi	r24, 0xF8	; 248
     9b8:	88 32       	cpi	r24, 0x28	; 40
     9ba:	09 f0       	breq	.+2      	;  0x9be
     9bc:	91 e0       	ldi	r25, 0x01	; 1
     9be:	89 2f       	mov	r24, r25
     9c0:	08 95       	ret
     9c2:	84 e8       	ldi	r24, 0x84	; 132
     9c4:	80 93 bc 00 	sts	0x00BC, r24
     9c8:	80 91 bc 00 	lds	r24, 0x00BC
     9cc:	87 ff       	sbrs	r24, 7
     9ce:	fc cf       	rjmp	.-8      	;  0x9c8
     9d0:	80 91 bb 00 	lds	r24, 0x00BB
     9d4:	08 95       	ret
     9d6:	cf 93       	push	r28
     9d8:	df 93       	push	r29
     9da:	60 e0       	ldi	r22, 0x00	; 0
     9dc:	72 ec       	ldi	r23, 0xC2	; 194
     9de:	81 e0       	ldi	r24, 0x01	; 1
     9e0:	90 e0       	ldi	r25, 0x00	; 0
     9e2:	0e 94 94 05 	call	0xb28	;  0xb28
     9e6:	0e 94 2d 05 	call	0xa5a	;  0xa5a
     9ea:	00 d0       	rcall	.+0      	;  0x9ec
     9ec:	88 e2       	ldi	r24, 0x28	; 40
     9ee:	91 e0       	ldi	r25, 0x01	; 1
     9f0:	ed b7       	in	r30, 0x3d	; 61
     9f2:	fe b7       	in	r31, 0x3e	; 62
     9f4:	92 83       	std	Z+2, r25	; 0x02
     9f6:	81 83       	std	Z+1, r24	; 0x01
     9f8:	0e 94 b4 06 	call	0xd68	;  0xd68
     9fc:	2c e4       	ldi	r18, 0x4C	; 76
     9fe:	3d e1       	ldi	r19, 0x1D	; 29
     a00:	0f 90       	pop	r0
     a02:	0f 90       	pop	r0
     a04:	40 e9       	ldi	r20, 0x90	; 144
     a06:	51 e0       	ldi	r21, 0x01	; 1
     a08:	ca 01       	movw	r24, r20
     a0a:	01 97       	sbiw	r24, 0x01	; 1
     a0c:	f1 f7       	brne	.-4      	;  0xa0a
     a0e:	21 50       	subi	r18, 0x01	; 1
     a10:	30 40       	sbci	r19, 0x00	; 0
     a12:	d1 f7       	brne	.-12     	;  0xa08
     a14:	3d 9a       	sbi	0x07, 5	; 7
     a16:	3c 9a       	sbi	0x07, 4	; 7
     a18:	10 92 32 01 	sts	0x0132, r1
     a1c:	0e 94 6d 04 	call	0x8da	;  0x8da
     a20:	80 e5       	ldi	r24, 0x50	; 80
     a22:	0e 94 9c 04 	call	0x938	;  0x938
     a26:	8d e3       	ldi	r24, 0x3D	; 61
     a28:	0e 94 cf 04 	call	0x99e	;  0x99e
     a2c:	8c e0       	ldi	r24, 0x0C	; 12
     a2e:	0e 94 cf 04 	call	0x99e	;  0x99e
     a32:	0e 94 c7 04 	call	0x98e	;  0x98e
     a36:	80 e4       	ldi	r24, 0x40	; 64
     a38:	9c e9       	ldi	r25, 0x9C	; 156
     a3a:	01 97       	sbiw	r24, 0x01	; 1
     a3c:	f1 f7       	brne	.-4      	;  0xa3a
     a3e:	0e 94 0f 04 	call	0x81e	;  0x81e
     a42:	c0 e9       	ldi	r28, 0x90	; 144
     a44:	d1 e0       	ldi	r29, 0x01	; 1
     a46:	0e 94 ad 00 	call	0x15a	;  0x15a
     a4a:	80 e1       	ldi	r24, 0x10	; 16
     a4c:	97 e2       	ldi	r25, 0x27	; 39
     a4e:	fe 01       	movw	r30, r28
     a50:	31 97       	sbiw	r30, 0x01	; 1
     a52:	f1 f7       	brne	.-4      	;  0xa50
     a54:	01 97       	sbiw	r24, 0x01	; 1
     a56:	d9 f7       	brne	.-10     	;  0xa4e
     a58:	f6 cf       	rjmp	.-20     	;  0xa46
     a5a:	52 9a       	sbi	0x0a, 2	; 10
     a5c:	21 9a       	sbi	0x04, 1	; 4
     a5e:	22 9a       	sbi	0x04, 2	; 4
     a60:	e0 e8       	ldi	r30, 0x80	; 128
     a62:	f0 e0       	ldi	r31, 0x00	; 0
     a64:	80 81       	ld	r24, Z
     a66:	82 6f       	ori	r24, 0xF2	; 242
     a68:	80 83       	st	Z, r24
     a6a:	e1 e8       	ldi	r30, 0x81	; 129
     a6c:	f0 e0       	ldi	r31, 0x00	; 0
     a6e:	80 81       	ld	r24, Z
     a70:	8a 61       	ori	r24, 0x1A	; 26
     a72:	80 83       	st	Z, r24
     a74:	e6 e8       	ldi	r30, 0x86	; 134
     a76:	f0 e0       	ldi	r31, 0x00	; 0
     a78:	8f e3       	ldi	r24, 0x3F	; 63
     a7a:	9c e9       	ldi	r25, 0x9C	; 156
     a7c:	91 83       	std	Z+1, r25	; 0x01
     a7e:	80 83       	st	Z, r24
     a80:	88 eb       	ldi	r24, 0xB8	; 184
     a82:	9b e0       	ldi	r25, 0x0B	; 11
     a84:	90 93 34 01 	sts	0x0134, r25
     a88:	80 93 33 01 	sts	0x0133, r24
     a8c:	80 81       	ld	r24, Z
     a8e:	91 81       	ldd	r25, Z+1	; 0x01
     a90:	88 5b       	subi	r24, 0xB8	; 184
     a92:	9b 40       	sbci	r25, 0x0B	; 11
     a94:	90 93 89 00 	sts	0x0089, r25
     a98:	80 93 88 00 	sts	0x0088, r24
     a9c:	08 95       	ret
     a9e:	80 91 33 01 	lds	r24, 0x0133
     aa2:	90 91 34 01 	lds	r25, 0x0134
     aa6:	88 5c       	subi	r24, 0xC8	; 200
     aa8:	90 40       	sbci	r25, 0x00	; 0
     aaa:	90 93 34 01 	sts	0x0134, r25
     aae:	80 93 33 01 	sts	0x0133, r24
     ab2:	88 59       	subi	r24, 0x98	; 152
     ab4:	98 40       	sbci	r25, 0x08	; 8
     ab6:	84 f0       	brlt	.+32     	;  0xad8
     ab8:	0e 94 12 03 	call	0x624	;  0x624
     abc:	80 91 86 00 	lds	r24, 0x0086
     ac0:	90 91 87 00 	lds	r25, 0x0087
     ac4:	20 91 33 01 	lds	r18, 0x0133
     ac8:	30 91 34 01 	lds	r19, 0x0134
     acc:	82 1b       	sub	r24, r18
     ace:	93 0b       	sbc	r25, r19
     ad0:	90 93 89 00 	sts	0x0089, r25
     ad4:	80 93 88 00 	sts	0x0088, r24
     ad8:	08 95       	ret
     ada:	80 91 33 01 	lds	r24, 0x0133
     ade:	90 91 34 01 	lds	r25, 0x0134
     ae2:	88 53       	subi	r24, 0x38	; 56
     ae4:	9f 4f       	sbci	r25, 0xFF	; 255
     ae6:	90 93 34 01 	sts	0x0134, r25
     aea:	80 93 33 01 	sts	0x0133, r24
     aee:	81 5a       	subi	r24, 0xA1	; 161
     af0:	9f 40       	sbci	r25, 0x0F	; 15
     af2:	cc f4       	brge	.+50     	;  0xb26
     af4:	0e 94 12 03 	call	0x624	;  0x624
     af8:	80 91 86 00 	lds	r24, 0x0086
     afc:	90 91 87 00 	lds	r25, 0x0087
     b00:	20 91 33 01 	lds	r18, 0x0133
     b04:	30 91 34 01 	lds	r19, 0x0134
     b08:	82 1b       	sub	r24, r18
     b0a:	93 0b       	sbc	r25, r19
     b0c:	90 93 89 00 	sts	0x0089, r25
     b10:	80 93 88 00 	sts	0x0088, r24
     b14:	88 ee       	ldi	r24, 0xE8	; 232
     b16:	93 e0       	ldi	r25, 0x03	; 3
     b18:	20 e9       	ldi	r18, 0x90	; 144
     b1a:	31 e0       	ldi	r19, 0x01	; 1
     b1c:	f9 01       	movw	r30, r18
     b1e:	31 97       	sbiw	r30, 0x01	; 1
     b20:	f1 f7       	brne	.-4      	;  0xb1e
     b22:	01 97       	sbiw	r24, 0x01	; 1
     b24:	d9 f7       	brne	.-10     	;  0xb1c
     b26:	08 95       	ret
     b28:	9b 01       	movw	r18, r22
     b2a:	ac 01       	movw	r20, r24
     b2c:	20 9a       	sbi	0x04, 0	; 4
     b2e:	21 98       	cbi	0x04, 1	; 4
     b30:	82 e0       	ldi	r24, 0x02	; 2
     b32:	80 93 c0 00 	sts	0x00C0, r24
     b36:	88 e1       	ldi	r24, 0x18	; 24
     b38:	80 93 c1 00 	sts	0x00C1, r24
     b3c:	87 e0       	ldi	r24, 0x07	; 7
     b3e:	80 93 c2 00 	sts	0x00C2, r24
     b42:	80 91 c0 00 	lds	r24, 0x00C0
     b46:	81 fd       	sbrc	r24, 1
     b48:	05 c0       	rjmp	.+10     	;  0xb54
     b4a:	60 e4       	ldi	r22, 0x40	; 64
     b4c:	72 e4       	ldi	r23, 0x42	; 66
     b4e:	8f e0       	ldi	r24, 0x0F	; 15
     b50:	90 e0       	ldi	r25, 0x00	; 0
     b52:	04 c0       	rjmp	.+8      	;  0xb5c
     b54:	60 e8       	ldi	r22, 0x80	; 128
     b56:	74 e8       	ldi	r23, 0x84	; 132
     b58:	8e e1       	ldi	r24, 0x1E	; 30
     b5a:	90 e0       	ldi	r25, 0x00	; 0
     b5c:	0e 94 80 09 	call	0x1300	;  0x1300
     b60:	21 50       	subi	r18, 0x01	; 1
     b62:	30 40       	sbci	r19, 0x00	; 0
     b64:	30 93 c5 00 	sts	0x00C5, r19
     b68:	20 93 c4 00 	sts	0x00C4, r18
     b6c:	08 95       	ret
     b6e:	fc 01       	movw	r30, r24
     b70:	07 c0       	rjmp	.+14     	;  0xb80
     b72:	80 91 c0 00 	lds	r24, 0x00C0
     b76:	85 ff       	sbrs	r24, 5
     b78:	fc cf       	rjmp	.-8      	;  0xb72
     b7a:	31 96       	adiw	r30, 0x01	; 1
     b7c:	90 93 c6 00 	sts	0x00C6, r25
     b80:	90 81       	ld	r25, Z
     b82:	99 23       	and	r25, r25
     b84:	b1 f7       	brne	.-20     	;  0xb72
     b86:	08 95       	ret
     b88:	4f 92       	push	r4
     b8a:	5f 92       	push	r5
     b8c:	6f 92       	push	r6
     b8e:	7f 92       	push	r7
     b90:	8f 92       	push	r8
     b92:	9f 92       	push	r9
     b94:	af 92       	push	r10
     b96:	bf 92       	push	r11
     b98:	cf 92       	push	r12
     b9a:	df 92       	push	r13
     b9c:	ff 92       	push	r15
     b9e:	0f 93       	push	r16
     ba0:	1f 93       	push	r17
     ba2:	df 93       	push	r29
     ba4:	cf 93       	push	r28
     ba6:	cd b7       	in	r28, 0x3d	; 61
     ba8:	de b7       	in	r29, 0x3e	; 62
     baa:	2c 97       	sbiw	r28, 0x0c	; 12
     bac:	0f b6       	in	r0, 0x3f	; 63
     bae:	f8 94       	cli
     bb0:	de bf       	out	0x3e, r29	; 62
     bb2:	0f be       	out	0x3f, r0	; 63
     bb4:	cd bf       	out	0x3d, r28	; 61
     bb6:	5a 01       	movw	r10, r20
     bb8:	6b 01       	movw	r12, r22
     bba:	12 2f       	mov	r17, r18
     bbc:	82 30       	cpi	r24, 0x02	; 2
     bbe:	39 f5       	brne	.+78     	;  0xc0e
     bc0:	21 c0       	rjmp	.+66     	;  0xc04
     bc2:	80 91 c0 00 	lds	r24, 0x00C0
     bc6:	85 ff       	sbrs	r24, 5
     bc8:	fc cf       	rjmp	.-8      	;  0xbc2
     bca:	20 e0       	ldi	r18, 0x00	; 0
     bcc:	81 2f       	mov	r24, r17
     bce:	90 e0       	ldi	r25, 0x00	; 0
     bd0:	01 97       	sbiw	r24, 0x01	; 1
     bd2:	ba 01       	movw	r22, r20
     bd4:	02 c0       	rjmp	.+4      	;  0xbda
     bd6:	66 0f       	add	r22, r22
     bd8:	77 1f       	adc	r23, r23
     bda:	8a 95       	dec	r24
     bdc:	e2 f7       	brpl	.-8      	;  0xbd6
     bde:	cb 01       	movw	r24, r22
     be0:	aa 27       	eor	r26, r26
     be2:	97 fd       	sbrc	r25, 7
     be4:	a0 95       	com	r26
     be6:	ba 2f       	mov	r27, r26
     be8:	8a 21       	and	r24, r10
     bea:	9b 21       	and	r25, r11
     bec:	ac 21       	and	r26, r12
     bee:	bd 21       	and	r27, r13
     bf0:	00 97       	sbiw	r24, 0x00	; 0
     bf2:	a1 05       	cpc	r26, r1
     bf4:	b1 05       	cpc	r27, r1
     bf6:	09 f0       	breq	.+2      	;  0xbfa
     bf8:	21 e0       	ldi	r18, 0x01	; 1
     bfa:	20 5d       	subi	r18, 0xD0	; 208
     bfc:	20 93 c6 00 	sts	0x00C6, r18
     c00:	11 50       	subi	r17, 0x01	; 1
     c02:	02 c0       	rjmp	.+4      	;  0xc08
     c04:	41 e0       	ldi	r20, 0x01	; 1
     c06:	50 e0       	ldi	r21, 0x00	; 0
     c08:	11 23       	and	r17, r17
     c0a:	d9 f6       	brne	.-74     	;  0xbc2
     c0c:	5b c0       	rjmp	.+182    	;  0xcc4
     c0e:	41 15       	cp	r20, r1
     c10:	51 05       	cpc	r21, r1
     c12:	61 05       	cpc	r22, r1
     c14:	71 05       	cpc	r23, r1
     c16:	51 f0       	breq	.+20     	;  0xc2c
     c18:	00 e0       	ldi	r16, 0x00	; 0
     c1a:	2e 01       	movw	r4, r28
     c1c:	08 94       	sec
     c1e:	41 1c       	adc	r4, r1
     c20:	51 1c       	adc	r5, r1
     c22:	68 2e       	mov	r6, r24
     c24:	77 24       	eor	r7, r7
     c26:	88 24       	eor	r8, r8
     c28:	99 24       	eor	r9, r9
     c2a:	37 c0       	rjmp	.+110    	;  0xc9a
     c2c:	90 e0       	ldi	r25, 0x00	; 0
     c2e:	20 e3       	ldi	r18, 0x30	; 48
     c30:	07 c0       	rjmp	.+14     	;  0xc40
     c32:	80 91 c0 00 	lds	r24, 0x00C0
     c36:	85 ff       	sbrs	r24, 5
     c38:	fc cf       	rjmp	.-8      	;  0xc32
     c3a:	20 93 c6 00 	sts	0x00C6, r18
     c3e:	9f 5f       	subi	r25, 0xFF	; 255
     c40:	91 17       	cp	r25, r17
     c42:	08 f0       	brcs	.+2      	;  0xc46
     c44:	3f c0       	rjmp	.+126    	;  0xcc4
     c46:	9a 30       	cpi	r25, 0x0A	; 10
     c48:	a1 f7       	brne	.-24     	;  0xc32
     c4a:	3c c0       	rjmp	.+120    	;  0xcc4
     c4c:	a1 14       	cp	r10, r1
     c4e:	b1 04       	cpc	r11, r1
     c50:	c1 04       	cpc	r12, r1
     c52:	d1 04       	cpc	r13, r1
     c54:	d9 f0       	breq	.+54     	;  0xc8c
     c56:	fa 2c       	mov	r15, r10
     c58:	c6 01       	movw	r24, r12
     c5a:	b5 01       	movw	r22, r10
     c5c:	a4 01       	movw	r20, r8
     c5e:	93 01       	movw	r18, r6
     c60:	0e 94 80 09 	call	0x1300	;  0x1300
     c64:	c9 01       	movw	r24, r18
     c66:	da 01       	movw	r26, r20
     c68:	5c 01       	movw	r10, r24
     c6a:	6d 01       	movw	r12, r26
     c6c:	c2 01       	movw	r24, r4
     c6e:	80 0f       	add	r24, r16
     c70:	91 1d       	adc	r25, r1
     c72:	9c 87       	std	Y+12, r25	; 0x0c
     c74:	8b 87       	std	Y+11, r24	; 0x0b
     c76:	c6 01       	movw	r24, r12
     c78:	b5 01       	movw	r22, r10
     c7a:	a4 01       	movw	r20, r8
     c7c:	93 01       	movw	r18, r6
     c7e:	0e 94 61 09 	call	0x12c2	;  0x12c2
     c82:	f6 1a       	sub	r15, r22
     c84:	eb 85       	ldd	r30, Y+11	; 0x0b
     c86:	fc 85       	ldd	r31, Y+12	; 0x0c
     c88:	f0 82       	st	Z, r15
     c8a:	06 c0       	rjmp	.+12     	;  0xc98
     c8c:	1b 30       	cpi	r17, 0x0B	; 11
     c8e:	c0 f4       	brcc	.+48     	;  0xcc0
     c90:	f2 01       	movw	r30, r4
     c92:	e0 0f       	add	r30, r16
     c94:	f1 1d       	adc	r31, r1
     c96:	10 82       	st	Z, r1
     c98:	0f 5f       	subi	r16, 0xFF	; 255
     c9a:	01 17       	cp	r16, r17
     c9c:	b8 f2       	brcs	.-82     	;  0xc4c
     c9e:	10 c0       	rjmp	.+32     	;  0xcc0
     ca0:	fe 01       	movw	r30, r28
     ca2:	e0 0f       	add	r30, r16
     ca4:	f1 1d       	adc	r31, r1
     ca6:	e0 81       	ld	r30, Z
     ca8:	ea 30       	cpi	r30, 0x0A	; 10
     caa:	10 f0       	brcs	.+4      	;  0xcb0
     cac:	e9 5c       	subi	r30, 0xC9	; 201
     cae:	01 c0       	rjmp	.+2      	;  0xcb2
     cb0:	e0 5d       	subi	r30, 0xD0	; 208
     cb2:	80 91 c0 00 	lds	r24, 0x00C0
     cb6:	85 ff       	sbrs	r24, 5
     cb8:	fc cf       	rjmp	.-8      	;  0xcb2
     cba:	e0 93 c6 00 	sts	0x00C6, r30
     cbe:	01 50       	subi	r16, 0x01	; 1
     cc0:	00 23       	and	r16, r16
     cc2:	71 f7       	brne	.-36     	;  0xca0
     cc4:	2c 96       	adiw	r28, 0x0c	; 12
     cc6:	0f b6       	in	r0, 0x3f	; 63
     cc8:	f8 94       	cli
     cca:	de bf       	out	0x3e, r29	; 62
     ccc:	0f be       	out	0x3f, r0	; 63
     cce:	cd bf       	out	0x3d, r28	; 61
     cd0:	cf 91       	pop	r28
     cd2:	df 91       	pop	r29
     cd4:	1f 91       	pop	r17
     cd6:	0f 91       	pop	r16
     cd8:	ff 90       	pop	r15
     cda:	df 90       	pop	r13
     cdc:	cf 90       	pop	r12
     cde:	bf 90       	pop	r11
     ce0:	af 90       	pop	r10
     ce2:	9f 90       	pop	r9
     ce4:	8f 90       	pop	r8
     ce6:	7f 90       	pop	r7
     ce8:	6f 90       	pop	r6
     cea:	5f 90       	pop	r5
     cec:	4f 90       	pop	r4
     cee:	08 95       	ret
     cf0:	af 92       	push	r10
     cf2:	bf 92       	push	r11
     cf4:	cf 92       	push	r12
     cf6:	df 92       	push	r13
     cf8:	ef 92       	push	r14
     cfa:	ff 92       	push	r15
     cfc:	0f 93       	push	r16
     cfe:	1f 93       	push	r17
     d00:	5b 01       	movw	r10, r22
     d02:	6c 01       	movw	r12, r24
     d04:	0e 94 44 08 	call	0x1088	;  0x1088
     d08:	7b 01       	movw	r14, r22
     d0a:	8c 01       	movw	r16, r24
     d0c:	8a e0       	ldi	r24, 0x0A	; 10
     d0e:	b8 01       	movw	r22, r16
     d10:	a7 01       	movw	r20, r14
     d12:	2f ef       	ldi	r18, 0xFF	; 255
     d14:	0e 94 c4 05 	call	0xb88	;  0xb88
     d18:	80 91 c0 00 	lds	r24, 0x00C0
     d1c:	85 ff       	sbrs	r24, 5
     d1e:	fc cf       	rjmp	.-8      	;  0xd18
     d20:	8e e2       	ldi	r24, 0x2E	; 46
     d22:	80 93 c6 00 	sts	0x00C6, r24
     d26:	c8 01       	movw	r24, r16
     d28:	b7 01       	movw	r22, r14
     d2a:	0e 94 70 08 	call	0x10e0	;  0x10e0
     d2e:	9b 01       	movw	r18, r22
     d30:	ac 01       	movw	r20, r24
     d32:	c6 01       	movw	r24, r12
     d34:	b5 01       	movw	r22, r10
     d36:	0e 94 da 07 	call	0xfb4	;  0xfb4
     d3a:	20 e0       	ldi	r18, 0x00	; 0
     d3c:	34 e2       	ldi	r19, 0x24	; 36
     d3e:	44 e7       	ldi	r20, 0x74	; 116
     d40:	59 e4       	ldi	r21, 0x49	; 73
     d42:	0e 94 fe 08 	call	0x11fc	;  0x11fc
     d46:	0e 94 44 08 	call	0x1088	;  0x1088
     d4a:	ab 01       	movw	r20, r22
     d4c:	bc 01       	movw	r22, r24
     d4e:	8a e0       	ldi	r24, 0x0A	; 10
     d50:	2f ef       	ldi	r18, 0xFF	; 255
     d52:	0e 94 c4 05 	call	0xb88	;  0xb88
     d56:	1f 91       	pop	r17
     d58:	0f 91       	pop	r16
     d5a:	ff 90       	pop	r15
     d5c:	ef 90       	pop	r14
     d5e:	df 90       	pop	r13
     d60:	cf 90       	pop	r12
     d62:	bf 90       	pop	r11
     d64:	af 90       	pop	r10
     d66:	08 95       	ret
     d68:	9f 92       	push	r9
     d6a:	af 92       	push	r10
     d6c:	bf 92       	push	r11
     d6e:	cf 92       	push	r12
     d70:	df 92       	push	r13
     d72:	ef 92       	push	r14
     d74:	ff 92       	push	r15
     d76:	0f 93       	push	r16
     d78:	1f 93       	push	r17
     d7a:	df 93       	push	r29
     d7c:	cf 93       	push	r28
     d7e:	cd b7       	in	r28, 0x3d	; 61
     d80:	de b7       	in	r29, 0x3e	; 62
     d82:	30 e1       	ldi	r19, 0x10	; 16
     d84:	e3 2e       	mov	r14, r19
     d86:	f1 2c       	mov	r15, r1
     d88:	ec 0e       	add	r14, r28
     d8a:	fd 1e       	adc	r15, r29
     d8c:	8e 85       	ldd	r24, Y+14	; 0x0e
     d8e:	9f 85       	ldd	r25, Y+15	; 0x0f
     d90:	9c 01       	movw	r18, r24
     d92:	69 01       	movw	r12, r18
     d94:	2a e0       	ldi	r18, 0x0A	; 10
     d96:	a2 2e       	mov	r10, r18
     d98:	9d e2       	ldi	r25, 0x2D	; 45
     d9a:	b9 2e       	mov	r11, r25
     d9c:	85 e2       	ldi	r24, 0x25	; 37
     d9e:	98 2e       	mov	r9, r24
     da0:	f8 c0       	rjmp	.+496    	;  0xf92
     da2:	95 32       	cpi	r25, 0x25	; 37
     da4:	09 f0       	breq	.+2      	;  0xda8
     da6:	ec c0       	rjmp	.+472    	;  0xf80
     da8:	08 94       	sec
     daa:	c1 1c       	adc	r12, r1
     dac:	d1 1c       	adc	r13, r1
     dae:	d6 01       	movw	r26, r12
     db0:	9c 91       	ld	r25, X
     db2:	89 2f       	mov	r24, r25
     db4:	80 53       	subi	r24, 0x30	; 48
     db6:	8a 30       	cpi	r24, 0x0A	; 10
     db8:	10 f0       	brcs	.+4      	;  0xdbe
     dba:	2f ef       	ldi	r18, 0xFF	; 255
     dbc:	0f c0       	rjmp	.+30     	;  0xddc
     dbe:	20 e0       	ldi	r18, 0x00	; 0
     dc0:	09 c0       	rjmp	.+18     	;  0xdd4
     dc2:	2a 9d       	mul	r18, r10
     dc4:	20 2d       	mov	r18, r0
     dc6:	11 24       	eor	r1, r1
     dc8:	28 0f       	add	r18, r24
     dca:	08 94       	sec
     dcc:	c1 1c       	adc	r12, r1
     dce:	d1 1c       	adc	r13, r1
     dd0:	f6 01       	movw	r30, r12
     dd2:	90 81       	ld	r25, Z
     dd4:	89 2f       	mov	r24, r25
     dd6:	80 53       	subi	r24, 0x30	; 48
     dd8:	8a 30       	cpi	r24, 0x0A	; 10
     dda:	98 f3       	brcs	.-26     	;  0xdc2
     ddc:	98 35       	cpi	r25, 0x58	; 88
     dde:	09 f4       	brne	.+2      	;  0xde2
     de0:	8a c0       	rjmp	.+276    	;  0xef6
     de2:	99 35       	cpi	r25, 0x59	; 89
     de4:	c4 f4       	brge	.+48     	;  0xe16
     de6:	94 34       	cpi	r25, 0x44	; 68
     de8:	09 f4       	brne	.+2      	;  0xdec
     dea:	4f c0       	rjmp	.+158    	;  0xe8a
     dec:	95 34       	cpi	r25, 0x45	; 69
     dee:	4c f4       	brge	.+18     	;  0xe02
     df0:	92 34       	cpi	r25, 0x42	; 66
     df2:	09 f4       	brne	.+2      	;  0xdf6
     df4:	99 c0       	rjmp	.+306    	;  0xf28
     df6:	93 34       	cpi	r25, 0x43	; 67
     df8:	2c f5       	brge	.+74     	;  0xe44
     dfa:	95 32       	cpi	r25, 0x25	; 37
     dfc:	09 f0       	breq	.+2      	;  0xe00
     dfe:	c6 c0       	rjmp	.+396    	;  0xf8c
     e00:	b8 c0       	rjmp	.+368    	;  0xf72
     e02:	93 35       	cpi	r25, 0x53	; 83
     e04:	09 f4       	brne	.+2      	;  0xe08
     e06:	ab c0       	rjmp	.+342    	;  0xf5e
     e08:	95 35       	cpi	r25, 0x55	; 85
     e0a:	09 f4       	brne	.+2      	;  0xe0e
     e0c:	61 c0       	rjmp	.+194    	;  0xed0
     e0e:	96 34       	cpi	r25, 0x46	; 70
     e10:	09 f0       	breq	.+2      	;  0xe14
     e12:	bc c0       	rjmp	.+376    	;  0xf8c
     e14:	99 c0       	rjmp	.+306    	;  0xf48
     e16:	96 36       	cpi	r25, 0x66	; 102
     e18:	09 f4       	brne	.+2      	;  0xe1c
     e1a:	96 c0       	rjmp	.+300    	;  0xf48
     e1c:	97 36       	cpi	r25, 0x67	; 103
     e1e:	44 f4       	brge	.+16     	;  0xe30
     e20:	93 36       	cpi	r25, 0x63	; 99
     e22:	81 f0       	breq	.+32     	;  0xe44
     e24:	94 36       	cpi	r25, 0x64	; 100
     e26:	c9 f0       	breq	.+50     	;  0xe5a
     e28:	92 36       	cpi	r25, 0x62	; 98
     e2a:	09 f0       	breq	.+2      	;  0xe2e
     e2c:	af c0       	rjmp	.+350    	;  0xf8c
     e2e:	6f c0       	rjmp	.+222    	;  0xf0e
     e30:	95 37       	cpi	r25, 0x75	; 117
     e32:	09 f4       	brne	.+2      	;  0xe36
     e34:	44 c0       	rjmp	.+136    	;  0xebe
     e36:	98 37       	cpi	r25, 0x78	; 120
     e38:	09 f4       	brne	.+2      	;  0xe3c
     e3a:	54 c0       	rjmp	.+168    	;  0xee4
     e3c:	93 37       	cpi	r25, 0x73	; 115
     e3e:	09 f0       	breq	.+2      	;  0xe42
     e40:	a5 c0       	rjmp	.+330    	;  0xf8c
     e42:	8d c0       	rjmp	.+282    	;  0xf5e
     e44:	d7 01       	movw	r26, r14
     e46:	9c 91       	ld	r25, X
     e48:	80 91 c0 00 	lds	r24, 0x00C0
     e4c:	85 ff       	sbrs	r24, 5
     e4e:	fc cf       	rjmp	.-8      	;  0xe48
     e50:	e2 e0       	ldi	r30, 0x02	; 2
     e52:	f0 e0       	ldi	r31, 0x00	; 0
     e54:	ee 0e       	add	r14, r30
     e56:	ff 1e       	adc	r15, r31
     e58:	97 c0       	rjmp	.+302    	;  0xf88
     e5a:	d7 01       	movw	r26, r14
     e5c:	ed 91       	ld	r30, X+
     e5e:	fc 91       	ld	r31, X
     e60:	f7 ff       	sbrs	r31, 7
     e62:	09 c0       	rjmp	.+18     	;  0xe76
     e64:	80 91 c0 00 	lds	r24, 0x00C0
     e68:	85 ff       	sbrs	r24, 5
     e6a:	fc cf       	rjmp	.-8      	;  0xe64
     e6c:	f0 95       	com	r31
     e6e:	e1 95       	neg	r30
     e70:	ff 4f       	sbci	r31, 0xFF	; 255
     e72:	b0 92 c6 00 	sts	0x00C6, r11
     e76:	82 e0       	ldi	r24, 0x02	; 2
     e78:	90 e0       	ldi	r25, 0x00	; 0
     e7a:	e8 0e       	add	r14, r24
     e7c:	f9 1e       	adc	r15, r25
     e7e:	af 01       	movw	r20, r30
     e80:	66 27       	eor	r22, r22
     e82:	57 fd       	sbrc	r21, 7
     e84:	60 95       	com	r22
     e86:	76 2f       	mov	r23, r22
     e88:	18 c0       	rjmp	.+48     	;  0xeba
     e8a:	d7 01       	movw	r26, r14
     e8c:	4d 91       	ld	r20, X+
     e8e:	5d 91       	ld	r21, X+
     e90:	6d 91       	ld	r22, X+
     e92:	7c 91       	ld	r23, X
     e94:	77 ff       	sbrs	r23, 7
     e96:	0d c0       	rjmp	.+26     	;  0xeb2
     e98:	80 91 c0 00 	lds	r24, 0x00C0
     e9c:	85 ff       	sbrs	r24, 5
     e9e:	fc cf       	rjmp	.-8      	;  0xe98
     ea0:	70 95       	com	r23
     ea2:	60 95       	com	r22
     ea4:	50 95       	com	r21
     ea6:	41 95       	neg	r20
     ea8:	5f 4f       	sbci	r21, 0xFF	; 255
     eaa:	6f 4f       	sbci	r22, 0xFF	; 255
     eac:	7f 4f       	sbci	r23, 0xFF	; 255
     eae:	b0 92 c6 00 	sts	0x00C6, r11
     eb2:	e4 e0       	ldi	r30, 0x04	; 4
     eb4:	f0 e0       	ldi	r31, 0x00	; 0
     eb6:	ee 0e       	add	r14, r30
     eb8:	ff 1e       	adc	r15, r31
     eba:	8a e0       	ldi	r24, 0x0A	; 10
     ebc:	42 c0       	rjmp	.+132    	;  0xf42
     ebe:	87 01       	movw	r16, r14
     ec0:	0e 5f       	subi	r16, 0xFE	; 254
     ec2:	1f 4f       	sbci	r17, 0xFF	; 255
     ec4:	d7 01       	movw	r26, r14
     ec6:	4d 91       	ld	r20, X+
     ec8:	5c 91       	ld	r21, X
     eca:	60 e0       	ldi	r22, 0x00	; 0
     ecc:	70 e0       	ldi	r23, 0x00	; 0
     ece:	08 c0       	rjmp	.+16     	;  0xee0
     ed0:	87 01       	movw	r16, r14
     ed2:	0c 5f       	subi	r16, 0xFC	; 252
     ed4:	1f 4f       	sbci	r17, 0xFF	; 255
     ed6:	f7 01       	movw	r30, r14
     ed8:	40 81       	ld	r20, Z
     eda:	51 81       	ldd	r21, Z+1	; 0x01
     edc:	62 81       	ldd	r22, Z+2	; 0x02
     ede:	73 81       	ldd	r23, Z+3	; 0x03
     ee0:	8a e0       	ldi	r24, 0x0A	; 10
     ee2:	12 c0       	rjmp	.+36     	;  0xf08
     ee4:	87 01       	movw	r16, r14
     ee6:	0e 5f       	subi	r16, 0xFE	; 254
     ee8:	1f 4f       	sbci	r17, 0xFF	; 255
     eea:	d7 01       	movw	r26, r14
     eec:	4d 91       	ld	r20, X+
     eee:	5c 91       	ld	r21, X
     ef0:	60 e0       	ldi	r22, 0x00	; 0
     ef2:	70 e0       	ldi	r23, 0x00	; 0
     ef4:	08 c0       	rjmp	.+16     	;  0xf06
     ef6:	87 01       	movw	r16, r14
     ef8:	0c 5f       	subi	r16, 0xFC	; 252
     efa:	1f 4f       	sbci	r17, 0xFF	; 255
     efc:	f7 01       	movw	r30, r14
     efe:	40 81       	ld	r20, Z
     f00:	51 81       	ldd	r21, Z+1	; 0x01
     f02:	62 81       	ldd	r22, Z+2	; 0x02
     f04:	73 81       	ldd	r23, Z+3	; 0x03
     f06:	80 e1       	ldi	r24, 0x10	; 16
     f08:	0e 94 c4 05 	call	0xb88	;  0xb88
     f0c:	30 c0       	rjmp	.+96     	;  0xf6e
     f0e:	d7 01       	movw	r26, r14
     f10:	4d 91       	ld	r20, X+
     f12:	5c 91       	ld	r21, X
     f14:	2f 3f       	cpi	r18, 0xFF	; 255
     f16:	09 f4       	brne	.+2      	;  0xf1a
     f18:	20 e1       	ldi	r18, 0x10	; 16
     f1a:	e2 e0       	ldi	r30, 0x02	; 2
     f1c:	f0 e0       	ldi	r31, 0x00	; 0
     f1e:	ee 0e       	add	r14, r30
     f20:	ff 1e       	adc	r15, r31
     f22:	60 e0       	ldi	r22, 0x00	; 0
     f24:	70 e0       	ldi	r23, 0x00	; 0
     f26:	0c c0       	rjmp	.+24     	;  0xf40
     f28:	d7 01       	movw	r26, r14
     f2a:	4d 91       	ld	r20, X+
     f2c:	5d 91       	ld	r21, X+
     f2e:	6d 91       	ld	r22, X+
     f30:	7c 91       	ld	r23, X
     f32:	2f 3f       	cpi	r18, 0xFF	; 255
     f34:	09 f4       	brne	.+2      	;  0xf38
     f36:	20 e2       	ldi	r18, 0x20	; 32
     f38:	e4 e0       	ldi	r30, 0x04	; 4
     f3a:	f0 e0       	ldi	r31, 0x00	; 0
     f3c:	ee 0e       	add	r14, r30
     f3e:	ff 1e       	adc	r15, r31
     f40:	82 e0       	ldi	r24, 0x02	; 2
     f42:	0e 94 c4 05 	call	0xb88	;  0xb88
     f46:	22 c0       	rjmp	.+68     	;  0xf8c
     f48:	87 01       	movw	r16, r14
     f4a:	0c 5f       	subi	r16, 0xFC	; 252
     f4c:	1f 4f       	sbci	r17, 0xFF	; 255
     f4e:	d7 01       	movw	r26, r14
     f50:	6d 91       	ld	r22, X+
     f52:	7d 91       	ld	r23, X+
     f54:	8d 91       	ld	r24, X+
     f56:	9c 91       	ld	r25, X
     f58:	0e 94 78 06 	call	0xcf0	;  0xcf0
     f5c:	08 c0       	rjmp	.+16     	;  0xf6e
     f5e:	87 01       	movw	r16, r14
     f60:	0e 5f       	subi	r16, 0xFE	; 254
     f62:	1f 4f       	sbci	r17, 0xFF	; 255
     f64:	f7 01       	movw	r30, r14
     f66:	80 81       	ld	r24, Z
     f68:	91 81       	ldd	r25, Z+1	; 0x01
     f6a:	0e 94 b7 05 	call	0xb6e	;  0xb6e
     f6e:	78 01       	movw	r14, r16
     f70:	0d c0       	rjmp	.+26     	;  0xf8c
     f72:	80 91 c0 00 	lds	r24, 0x00C0
     f76:	85 ff       	sbrs	r24, 5
     f78:	fc cf       	rjmp	.-8      	;  0xf72
     f7a:	90 92 c6 00 	sts	0x00C6, r9
     f7e:	06 c0       	rjmp	.+12     	;  0xf8c
     f80:	80 91 c0 00 	lds	r24, 0x00C0
     f84:	85 ff       	sbrs	r24, 5
     f86:	fc cf       	rjmp	.-8      	;  0xf80
     f88:	90 93 c6 00 	sts	0x00C6, r25
     f8c:	08 94       	sec
     f8e:	c1 1c       	adc	r12, r1
     f90:	d1 1c       	adc	r13, r1
     f92:	d6 01       	movw	r26, r12
     f94:	9c 91       	ld	r25, X
     f96:	99 23       	and	r25, r25
     f98:	09 f0       	breq	.+2      	;  0xf9c
     f9a:	03 cf       	rjmp	.-506    	;  0xda2
     f9c:	cf 91       	pop	r28
     f9e:	df 91       	pop	r29
     fa0:	1f 91       	pop	r17
     fa2:	0f 91       	pop	r16
     fa4:	ff 90       	pop	r15
     fa6:	ef 90       	pop	r14
     fa8:	df 90       	pop	r13
     faa:	cf 90       	pop	r12
     fac:	bf 90       	pop	r11
     fae:	af 90       	pop	r10
     fb0:	9f 90       	pop	r9
     fb2:	08 95       	ret
     fb4:	50 58       	subi	r21, 0x80	; 128
     fb6:	bb 27       	eor	r27, r27
     fb8:	aa 27       	eor	r26, r26
     fba:	0e d0       	rcall	.+28     	;  0xfd8
     fbc:	e5 c0       	rjmp	.+458    	;  0x1188
     fbe:	d6 d0       	rcall	.+428    	;  0x116c
     fc0:	30 f0       	brcs	.+12     	;  0xfce
     fc2:	db d0       	rcall	.+438    	;  0x117a
     fc4:	20 f0       	brcs	.+8      	;  0xfce
     fc6:	31 f4       	brne	.+12     	;  0xfd4
     fc8:	9f 3f       	cpi	r25, 0xFF	; 255
     fca:	11 f4       	brne	.+4      	;  0xfd0
     fcc:	1e f4       	brtc	.+6      	;  0xfd4
     fce:	cb c0       	rjmp	.+406    	;  0x1166
     fd0:	0e f4       	brtc	.+2      	;  0xfd4
     fd2:	e0 95       	com	r30
     fd4:	e7 fb       	bst	r30, 7
     fd6:	c1 c0       	rjmp	.+386    	;  0x115a
     fd8:	e9 2f       	mov	r30, r25
     fda:	e7 d0       	rcall	.+462    	;  0x11aa
     fdc:	80 f3       	brcs	.-32     	;  0xfbe
     fde:	ba 17       	cp	r27, r26
     fe0:	62 07       	cpc	r22, r18
     fe2:	73 07       	cpc	r23, r19
     fe4:	84 07       	cpc	r24, r20
     fe6:	95 07       	cpc	r25, r21
     fe8:	18 f0       	brcs	.+6      	;  0xff0
     fea:	71 f4       	brne	.+28     	;  0x1008
     fec:	9e f5       	brtc	.+102    	;  0x1054
     fee:	ff c0       	rjmp	.+510    	;  0x11ee
     ff0:	0e f4       	brtc	.+2      	;  0xff4
     ff2:	e0 95       	com	r30
     ff4:	0b 2e       	mov	r0, r27
     ff6:	ba 2f       	mov	r27, r26
     ff8:	a0 2d       	mov	r26, r0
     ffa:	0b 01       	movw	r0, r22
     ffc:	b9 01       	movw	r22, r18
     ffe:	90 01       	movw	r18, r0
    1000:	0c 01       	movw	r0, r24
    1002:	ca 01       	movw	r24, r20
    1004:	a0 01       	movw	r20, r0
    1006:	11 24       	eor	r1, r1
    1008:	ff 27       	eor	r31, r31
    100a:	59 1b       	sub	r21, r25
    100c:	99 f0       	breq	.+38     	;  0x1034
    100e:	59 3f       	cpi	r21, 0xF9	; 249
    1010:	50 f4       	brcc	.+20     	;  0x1026
    1012:	50 3e       	cpi	r21, 0xE0	; 224
    1014:	68 f1       	brcs	.+90     	;  0x1070
    1016:	1a 16       	cp	r1, r26
    1018:	f0 40       	sbci	r31, 0x00	; 0
    101a:	a2 2f       	mov	r26, r18
    101c:	23 2f       	mov	r18, r19
    101e:	34 2f       	mov	r19, r20
    1020:	44 27       	eor	r20, r20
    1022:	58 5f       	subi	r21, 0xF8	; 248
    1024:	f3 cf       	rjmp	.-26     	;  0x100c
    1026:	46 95       	lsr	r20
    1028:	37 95       	ror	r19
    102a:	27 95       	ror	r18
    102c:	a7 95       	ror	r26
    102e:	f0 40       	sbci	r31, 0x00	; 0
    1030:	53 95       	inc	r21
    1032:	c9 f7       	brne	.-14     	;  0x1026
    1034:	7e f4       	brtc	.+30     	;  0x1054
    1036:	1f 16       	cp	r1, r31
    1038:	ba 0b       	sbc	r27, r26
    103a:	62 0b       	sbc	r22, r18
    103c:	73 0b       	sbc	r23, r19
    103e:	84 0b       	sbc	r24, r20
    1040:	ba f0       	brmi	.+46     	;  0x1070
    1042:	91 50       	subi	r25, 0x01	; 1
    1044:	a1 f0       	breq	.+40     	;  0x106e
    1046:	ff 0f       	add	r31, r31
    1048:	bb 1f       	adc	r27, r27
    104a:	66 1f       	adc	r22, r22
    104c:	77 1f       	adc	r23, r23
    104e:	88 1f       	adc	r24, r24
    1050:	c2 f7       	brpl	.-16     	;  0x1042
    1052:	0e c0       	rjmp	.+28     	;  0x1070
    1054:	ba 0f       	add	r27, r26
    1056:	62 1f       	adc	r22, r18
    1058:	73 1f       	adc	r23, r19
    105a:	84 1f       	adc	r24, r20
    105c:	48 f4       	brcc	.+18     	;  0x1070
    105e:	87 95       	ror	r24
    1060:	77 95       	ror	r23
    1062:	67 95       	ror	r22
    1064:	b7 95       	ror	r27
    1066:	f7 95       	ror	r31
    1068:	9e 3f       	cpi	r25, 0xFE	; 254
    106a:	08 f0       	brcs	.+2      	;  0x106e
    106c:	b3 cf       	rjmp	.-154    	;  0xfd4
    106e:	93 95       	inc	r25
    1070:	88 0f       	add	r24, r24
    1072:	08 f0       	brcs	.+2      	;  0x1076
    1074:	99 27       	eor	r25, r25
    1076:	ee 0f       	add	r30, r30
    1078:	97 95       	ror	r25
    107a:	87 95       	ror	r24
    107c:	08 95       	ret
    107e:	04 d0       	rcall	.+8      	;  0x1088
    1080:	68 94       	set
    1082:	b1 11       	cpse	r27, r1
    1084:	b5 c0       	rjmp	.+362    	;  0x11f0
    1086:	08 95       	ret
    1088:	98 d0       	rcall	.+304    	;  0x11ba
    108a:	88 f0       	brcs	.+34     	;  0x10ae
    108c:	9f 57       	subi	r25, 0x7F	; 127
    108e:	90 f0       	brcs	.+36     	;  0x10b4
    1090:	b9 2f       	mov	r27, r25
    1092:	99 27       	eor	r25, r25
    1094:	b7 51       	subi	r27, 0x17	; 23
    1096:	a0 f0       	brcs	.+40     	;  0x10c0
    1098:	d1 f0       	breq	.+52     	;  0x10ce
    109a:	66 0f       	add	r22, r22
    109c:	77 1f       	adc	r23, r23
    109e:	88 1f       	adc	r24, r24
    10a0:	99 1f       	adc	r25, r25
    10a2:	1a f0       	brmi	.+6      	;  0x10aa
    10a4:	ba 95       	dec	r27
    10a6:	c9 f7       	brne	.-14     	;  0x109a
    10a8:	12 c0       	rjmp	.+36     	;  0x10ce
    10aa:	b1 30       	cpi	r27, 0x01	; 1
    10ac:	81 f0       	breq	.+32     	;  0x10ce
    10ae:	9f d0       	rcall	.+318    	;  0x11ee
    10b0:	b1 e0       	ldi	r27, 0x01	; 1
    10b2:	08 95       	ret
    10b4:	9c c0       	rjmp	.+312    	;  0x11ee
    10b6:	67 2f       	mov	r22, r23
    10b8:	78 2f       	mov	r23, r24
    10ba:	88 27       	eor	r24, r24
    10bc:	b8 5f       	subi	r27, 0xF8	; 248
    10be:	39 f0       	breq	.+14     	;  0x10ce
    10c0:	b9 3f       	cpi	r27, 0xF9	; 249
    10c2:	cc f3       	brlt	.-14     	;  0x10b6
    10c4:	86 95       	lsr	r24
    10c6:	77 95       	ror	r23
    10c8:	67 95       	ror	r22
    10ca:	b3 95       	inc	r27
    10cc:	d9 f7       	brne	.-10     	;  0x10c4
    10ce:	3e f4       	brtc	.+14     	;  0x10de
    10d0:	90 95       	com	r25
    10d2:	80 95       	com	r24
    10d4:	70 95       	com	r23
    10d6:	61 95       	neg	r22
    10d8:	7f 4f       	sbci	r23, 0xFF	; 255
    10da:	8f 4f       	sbci	r24, 0xFF	; 255
    10dc:	9f 4f       	sbci	r25, 0xFF	; 255
    10de:	08 95       	ret
    10e0:	e8 94       	clt
    10e2:	09 c0       	rjmp	.+18     	;  0x10f6
    10e4:	97 fb       	bst	r25, 7
    10e6:	3e f4       	brtc	.+14     	;  0x10f6
    10e8:	90 95       	com	r25
    10ea:	80 95       	com	r24
    10ec:	70 95       	com	r23
    10ee:	61 95       	neg	r22
    10f0:	7f 4f       	sbci	r23, 0xFF	; 255
    10f2:	8f 4f       	sbci	r24, 0xFF	; 255
    10f4:	9f 4f       	sbci	r25, 0xFF	; 255
    10f6:	99 23       	and	r25, r25
    10f8:	a9 f0       	breq	.+42     	;  0x1124
    10fa:	f9 2f       	mov	r31, r25
    10fc:	96 e9       	ldi	r25, 0x96	; 150
    10fe:	bb 27       	eor	r27, r27
    1100:	93 95       	inc	r25
    1102:	f6 95       	lsr	r31
    1104:	87 95       	ror	r24
    1106:	77 95       	ror	r23
    1108:	67 95       	ror	r22
    110a:	b7 95       	ror	r27
    110c:	f1 11       	cpse	r31, r1
    110e:	f8 cf       	rjmp	.-16     	;  0x1100
    1110:	fa f4       	brpl	.+62     	;  0x1150
    1112:	bb 0f       	add	r27, r27
    1114:	11 f4       	brne	.+4      	;  0x111a
    1116:	60 ff       	sbrs	r22, 0
    1118:	1b c0       	rjmp	.+54     	;  0x1150
    111a:	6f 5f       	subi	r22, 0xFF	; 255
    111c:	7f 4f       	sbci	r23, 0xFF	; 255
    111e:	8f 4f       	sbci	r24, 0xFF	; 255
    1120:	9f 4f       	sbci	r25, 0xFF	; 255
    1122:	16 c0       	rjmp	.+44     	;  0x1150
    1124:	88 23       	and	r24, r24
    1126:	11 f0       	breq	.+4      	;  0x112c
    1128:	96 e9       	ldi	r25, 0x96	; 150
    112a:	11 c0       	rjmp	.+34     	;  0x114e
    112c:	77 23       	and	r23, r23
    112e:	21 f0       	breq	.+8      	;  0x1138
    1130:	9e e8       	ldi	r25, 0x8E	; 142
    1132:	87 2f       	mov	r24, r23
    1134:	76 2f       	mov	r23, r22
    1136:	05 c0       	rjmp	.+10     	;  0x1142
    1138:	66 23       	and	r22, r22
    113a:	71 f0       	breq	.+28     	;  0x1158
    113c:	96 e8       	ldi	r25, 0x86	; 134
    113e:	86 2f       	mov	r24, r22
    1140:	70 e0       	ldi	r23, 0x00	; 0
    1142:	60 e0       	ldi	r22, 0x00	; 0
    1144:	2a f0       	brmi	.+10     	;  0x1150
    1146:	9a 95       	dec	r25
    1148:	66 0f       	add	r22, r22
    114a:	77 1f       	adc	r23, r23
    114c:	88 1f       	adc	r24, r24
    114e:	da f7       	brpl	.-10     	;  0x1146
    1150:	88 0f       	add	r24, r24
    1152:	96 95       	lsr	r25
    1154:	87 95       	ror	r24
    1156:	97 f9       	bld	r25, 7
    1158:	08 95       	ret
    115a:	97 f9       	bld	r25, 7
    115c:	9f 67       	ori	r25, 0x7F	; 127
    115e:	80 e8       	ldi	r24, 0x80	; 128
    1160:	70 e0       	ldi	r23, 0x00	; 0
    1162:	60 e0       	ldi	r22, 0x00	; 0
    1164:	08 95       	ret
    1166:	9f ef       	ldi	r25, 0xFF	; 255
    1168:	80 ec       	ldi	r24, 0xC0	; 192
    116a:	08 95       	ret
    116c:	00 24       	eor	r0, r0
    116e:	0a 94       	dec	r0
    1170:	16 16       	cp	r1, r22
    1172:	17 06       	cpc	r1, r23
    1174:	18 06       	cpc	r1, r24
    1176:	09 06       	cpc	r0, r25
    1178:	08 95       	ret
    117a:	00 24       	eor	r0, r0
    117c:	0a 94       	dec	r0
    117e:	12 16       	cp	r1, r18
    1180:	13 06       	cpc	r1, r19
    1182:	14 06       	cpc	r1, r20
    1184:	05 06       	cpc	r0, r21
    1186:	08 95       	ret
    1188:	09 2e       	mov	r0, r25
    118a:	03 94       	inc	r0
    118c:	00 0c       	add	r0, r0
    118e:	11 f4       	brne	.+4      	;  0x1194
    1190:	88 23       	and	r24, r24
    1192:	52 f0       	brmi	.+20     	;  0x11a8
    1194:	bb 0f       	add	r27, r27
    1196:	40 f4       	brcc	.+16     	;  0x11a8
    1198:	bf 2b       	or	r27, r31
    119a:	11 f4       	brne	.+4      	;  0x11a0
    119c:	60 ff       	sbrs	r22, 0
    119e:	04 c0       	rjmp	.+8      	;  0x11a8
    11a0:	6f 5f       	subi	r22, 0xFF	; 255
    11a2:	7f 4f       	sbci	r23, 0xFF	; 255
    11a4:	8f 4f       	sbci	r24, 0xFF	; 255
    11a6:	9f 4f       	sbci	r25, 0xFF	; 255
    11a8:	08 95       	ret
    11aa:	57 fd       	sbrc	r21, 7
    11ac:	90 58       	subi	r25, 0x80	; 128
    11ae:	44 0f       	add	r20, r20
    11b0:	55 1f       	adc	r21, r21
    11b2:	59 f0       	breq	.+22     	;  0x11ca
    11b4:	5f 3f       	cpi	r21, 0xFF	; 255
    11b6:	71 f0       	breq	.+28     	;  0x11d4
    11b8:	47 95       	ror	r20
    11ba:	88 0f       	add	r24, r24
    11bc:	97 fb       	bst	r25, 7
    11be:	99 1f       	adc	r25, r25
    11c0:	61 f0       	breq	.+24     	;  0x11da
    11c2:	9f 3f       	cpi	r25, 0xFF	; 255
    11c4:	79 f0       	breq	.+30     	;  0x11e4
    11c6:	87 95       	ror	r24
    11c8:	08 95       	ret
    11ca:	12 16       	cp	r1, r18
    11cc:	13 06       	cpc	r1, r19
    11ce:	14 06       	cpc	r1, r20
    11d0:	55 1f       	adc	r21, r21
    11d2:	f2 cf       	rjmp	.-28     	;  0x11b8
    11d4:	46 95       	lsr	r20
    11d6:	f1 df       	rcall	.-30     	;  0x11ba
    11d8:	08 c0       	rjmp	.+16     	;  0x11ea
    11da:	16 16       	cp	r1, r22
    11dc:	17 06       	cpc	r1, r23
    11de:	18 06       	cpc	r1, r24
    11e0:	99 1f       	adc	r25, r25
    11e2:	f1 cf       	rjmp	.-30     	;  0x11c6
    11e4:	86 95       	lsr	r24
    11e6:	71 05       	cpc	r23, r1
    11e8:	61 05       	cpc	r22, r1
    11ea:	08 94       	sec
    11ec:	08 95       	ret
    11ee:	e8 94       	clt
    11f0:	bb 27       	eor	r27, r27
    11f2:	66 27       	eor	r22, r22
    11f4:	77 27       	eor	r23, r23
    11f6:	cb 01       	movw	r24, r22
    11f8:	97 f9       	bld	r25, 7
    11fa:	08 95       	ret
    11fc:	0b d0       	rcall	.+22     	;  0x1214
    11fe:	c4 cf       	rjmp	.-120    	;  0x1188
    1200:	b5 df       	rcall	.-150    	;  0x116c
    1202:	28 f0       	brcs	.+10     	;  0x120e
    1204:	ba df       	rcall	.-140    	;  0x117a
    1206:	18 f0       	brcs	.+6      	;  0x120e
    1208:	95 23       	and	r25, r21
    120a:	09 f0       	breq	.+2      	;  0x120e
    120c:	a6 cf       	rjmp	.-180    	;  0x115a
    120e:	ab cf       	rjmp	.-170    	;  0x1166
    1210:	11 24       	eor	r1, r1
    1212:	ee cf       	rjmp	.-36     	;  0x11f0
    1214:	ca df       	rcall	.-108    	;  0x11aa
    1216:	a0 f3       	brcs	.-24     	;  0x1200
    1218:	95 9f       	mul	r25, r21
    121a:	d1 f3       	breq	.-12     	;  0x1210
    121c:	95 0f       	add	r25, r21
    121e:	50 e0       	ldi	r21, 0x00	; 0
    1220:	55 1f       	adc	r21, r21
    1222:	62 9f       	mul	r22, r18
    1224:	f0 01       	movw	r30, r0
    1226:	72 9f       	mul	r23, r18
    1228:	bb 27       	eor	r27, r27
    122a:	f0 0d       	add	r31, r0
    122c:	b1 1d       	adc	r27, r1
    122e:	63 9f       	mul	r22, r19
    1230:	aa 27       	eor	r26, r26
    1232:	f0 0d       	add	r31, r0
    1234:	b1 1d       	adc	r27, r1
    1236:	aa 1f       	adc	r26, r26
    1238:	64 9f       	mul	r22, r20
    123a:	66 27       	eor	r22, r22
    123c:	b0 0d       	add	r27, r0
    123e:	a1 1d       	adc	r26, r1
    1240:	66 1f       	adc	r22, r22
    1242:	82 9f       	mul	r24, r18
    1244:	22 27       	eor	r18, r18
    1246:	b0 0d       	add	r27, r0
    1248:	a1 1d       	adc	r26, r1
    124a:	62 1f       	adc	r22, r18
    124c:	73 9f       	mul	r23, r19
    124e:	b0 0d       	add	r27, r0
    1250:	a1 1d       	adc	r26, r1
    1252:	62 1f       	adc	r22, r18
    1254:	83 9f       	mul	r24, r19
    1256:	a0 0d       	add	r26, r0
    1258:	61 1d       	adc	r22, r1
    125a:	22 1f       	adc	r18, r18
    125c:	74 9f       	mul	r23, r20
    125e:	33 27       	eor	r19, r19
    1260:	a0 0d       	add	r26, r0
    1262:	61 1d       	adc	r22, r1
    1264:	23 1f       	adc	r18, r19
    1266:	84 9f       	mul	r24, r20
    1268:	60 0d       	add	r22, r0
    126a:	21 1d       	adc	r18, r1
    126c:	82 2f       	mov	r24, r18
    126e:	76 2f       	mov	r23, r22
    1270:	6a 2f       	mov	r22, r26
    1272:	11 24       	eor	r1, r1
    1274:	9f 57       	subi	r25, 0x7F	; 127
    1276:	50 40       	sbci	r21, 0x00	; 0
    1278:	8a f0       	brmi	.+34     	;  0x129c
    127a:	e1 f0       	breq	.+56     	;  0x12b4
    127c:	88 23       	and	r24, r24
    127e:	4a f0       	brmi	.+18     	;  0x1292
    1280:	ee 0f       	add	r30, r30
    1282:	ff 1f       	adc	r31, r31
    1284:	bb 1f       	adc	r27, r27
    1286:	66 1f       	adc	r22, r22
    1288:	77 1f       	adc	r23, r23
    128a:	88 1f       	adc	r24, r24
    128c:	91 50       	subi	r25, 0x01	; 1
    128e:	50 40       	sbci	r21, 0x00	; 0
    1290:	a9 f7       	brne	.-22     	;  0x127c
    1292:	9e 3f       	cpi	r25, 0xFE	; 254
    1294:	51 05       	cpc	r21, r1
    1296:	70 f0       	brcs	.+28     	;  0x12b4
    1298:	60 cf       	rjmp	.-320    	;  0x115a
    129a:	aa cf       	rjmp	.-172    	;  0x11f0
    129c:	5f 3f       	cpi	r21, 0xFF	; 255
    129e:	ec f3       	brlt	.-6      	;  0x129a
    12a0:	98 3e       	cpi	r25, 0xE8	; 232
    12a2:	dc f3       	brlt	.-10     	;  0x129a
    12a4:	86 95       	lsr	r24
    12a6:	77 95       	ror	r23
    12a8:	67 95       	ror	r22
    12aa:	b7 95       	ror	r27
    12ac:	f7 95       	ror	r31
    12ae:	e7 95       	ror	r30
    12b0:	9f 5f       	subi	r25, 0xFF	; 255
    12b2:	c1 f7       	brne	.-16     	;  0x12a4
    12b4:	fe 2b       	or	r31, r30
    12b6:	88 0f       	add	r24, r24
    12b8:	91 1d       	adc	r25, r1
    12ba:	96 95       	lsr	r25
    12bc:	87 95       	ror	r24
    12be:	97 f9       	bld	r25, 7
    12c0:	08 95       	ret
    12c2:	62 9f       	mul	r22, r18
    12c4:	d0 01       	movw	r26, r0
    12c6:	73 9f       	mul	r23, r19
    12c8:	f0 01       	movw	r30, r0
    12ca:	82 9f       	mul	r24, r18
    12cc:	e0 0d       	add	r30, r0
    12ce:	f1 1d       	adc	r31, r1
    12d0:	64 9f       	mul	r22, r20
    12d2:	e0 0d       	add	r30, r0
    12d4:	f1 1d       	adc	r31, r1
    12d6:	92 9f       	mul	r25, r18
    12d8:	f0 0d       	add	r31, r0
    12da:	83 9f       	mul	r24, r19
    12dc:	f0 0d       	add	r31, r0
    12de:	74 9f       	mul	r23, r20
    12e0:	f0 0d       	add	r31, r0
    12e2:	65 9f       	mul	r22, r21
    12e4:	f0 0d       	add	r31, r0
    12e6:	99 27       	eor	r25, r25
    12e8:	72 9f       	mul	r23, r18
    12ea:	b0 0d       	add	r27, r0
    12ec:	e1 1d       	adc	r30, r1
    12ee:	f9 1f       	adc	r31, r25
    12f0:	63 9f       	mul	r22, r19
    12f2:	b0 0d       	add	r27, r0
    12f4:	e1 1d       	adc	r30, r1
    12f6:	f9 1f       	adc	r31, r25
    12f8:	bd 01       	movw	r22, r26
    12fa:	cf 01       	movw	r24, r30
    12fc:	11 24       	eor	r1, r1
    12fe:	08 95       	ret
    1300:	a1 e2       	ldi	r26, 0x21	; 33
    1302:	1a 2e       	mov	r1, r26
    1304:	aa 1b       	sub	r26, r26
    1306:	bb 1b       	sub	r27, r27
    1308:	fd 01       	movw	r30, r26
    130a:	0d c0       	rjmp	.+26     	;  0x1326
    130c:	aa 1f       	adc	r26, r26
    130e:	bb 1f       	adc	r27, r27
    1310:	ee 1f       	adc	r30, r30
    1312:	ff 1f       	adc	r31, r31
    1314:	a2 17       	cp	r26, r18
    1316:	b3 07       	cpc	r27, r19
    1318:	e4 07       	cpc	r30, r20
    131a:	f5 07       	cpc	r31, r21
    131c:	20 f0       	brcs	.+8      	;  0x1326
    131e:	a2 1b       	sub	r26, r18
    1320:	b3 0b       	sbc	r27, r19
    1322:	e4 0b       	sbc	r30, r20
    1324:	f5 0b       	sbc	r31, r21
    1326:	66 1f       	adc	r22, r22
    1328:	77 1f       	adc	r23, r23
    132a:	88 1f       	adc	r24, r24
    132c:	99 1f       	adc	r25, r25
    132e:	1a 94       	dec	r1
    1330:	69 f7       	brne	.-38     	;  0x130c
    1332:	60 95       	com	r22
    1334:	70 95       	com	r23
    1336:	80 95       	com	r24
    1338:	90 95       	com	r25
    133a:	9b 01       	movw	r18, r22
    133c:	ac 01       	movw	r20, r24
    133e:	bd 01       	movw	r22, r26
    1340:	cf 01       	movw	r24, r30
    1342:	08 95       	ret
    1344:	aa 1b       	sub	r26, r26
    1346:	bb 1b       	sub	r27, r27
    1348:	51 e1       	ldi	r21, 0x11	; 17
    134a:	07 c0       	rjmp	.+14     	;  0x135a
    134c:	aa 1f       	adc	r26, r26
    134e:	bb 1f       	adc	r27, r27
    1350:	a6 17       	cp	r26, r22
    1352:	b7 07       	cpc	r27, r23
    1354:	10 f0       	brcs	.+4      	;  0x135a
    1356:	a6 1b       	sub	r26, r22
    1358:	b7 0b       	sbc	r27, r23
    135a:	88 1f       	adc	r24, r24
    135c:	99 1f       	adc	r25, r25
    135e:	5a 95       	dec	r21
    1360:	a9 f7       	brne	.-22     	;  0x134c
    1362:	80 95       	com	r24
    1364:	90 95       	com	r25
    1366:	bc 01       	movw	r22, r24
    1368:	cd 01       	movw	r24, r26
    136a:	08 95       	ret
    136c:	f8 94       	cli
    136e:	ff cf       	rjmp	.-2      	;  0x136e
